
C:/Users/Alex/Documents/McGill/ECSE_324/Labs/ECSE324/Lab 5/main.axf:     file format elf32-littlearm


Disassembly of section .text:

00000000 <__cs3_interrupt_vector>:
       0:	18 f0 9f e5 18 f0 9f e5 18 f0 9f e5 18 f0 9f e5     ................
      10:	18 f0 9f e5 18 f0 9f e5 18 f0 9f e5 18 f0 9f e5     ................
      20:	60 20 00 00 6c 20 00 00 78 20 00 00 84 20 00 00     ` ..l ..x ... ..
      30:	90 20 00 00 0c 35 00 00 08 1f 00 00 9c 20 00 00     . ...5....... ..

00000040 <__cs3_reset_generic>:
      40:	ea000026 	b	e0 <__cs3_start_asm_sim>

00000044 <__cs3_start_c>:
      44:	e59f608c 	ldr	r6, [pc, #140]	; d8 <__cs3_start_c+0x94>
      48:	e3560000 	cmp	r6, #0
      4c:	e92d4080 	push	{r7, lr}
      50:	e2466001 	sub	r6, r6, #1
      54:	0a00001e 	beq	d4 <__cs3_start_c+0x90>
      58:	e59f507c 	ldr	r5, [pc, #124]	; dc <__cs3_start_c+0x98>
      5c:	e3a00000 	mov	r0, #0
      60:	e3a01000 	mov	r1, #0
      64:	e515200c 	ldr	r2, [r5, #-12]
      68:	e515e010 	ldr	lr, [r5, #-16]
      6c:	e5154008 	ldr	r4, [r5, #-8]
      70:	e15e0002 	cmp	lr, r2
      74:	00822004 	addeq	r2, r2, r4
      78:	0a000009 	beq	a4 <__cs3_start_c+0x60>
      7c:	e3540000 	cmp	r4, #0
      80:	0a000007 	beq	a4 <__cs3_start_c+0x60>
      84:	e1a07002 	mov	r7, r2
      88:	e1a0c002 	mov	r12, r2
      8c:	e8be000c 	ldm	lr!, {r2, r3}
      90:	e8ac000c 	stmia	r12!, {r2, r3}
      94:	e067300c 	rsb	r3, r7, r12
      98:	e1540003 	cmp	r4, r3
      9c:	e1a0200c 	mov	r2, r12
      a0:	1afffff9 	bne	8c <__cs3_start_c+0x48>
      a4:	e515e004 	ldr	lr, [r5, #-4]
      a8:	e35e0000 	cmp	lr, #0
      ac:	11a03002 	movne	r3, r2
      b0:	0a000003 	beq	c4 <__cs3_start_c+0x80>
      b4:	e8a30003 	stmia	r3!, {r0, r1}
      b8:	e062c003 	rsb	r12, r2, r3
      bc:	e15e000c 	cmp	lr, r12
      c0:	1afffffb 	bne	b4 <__cs3_start_c+0x70>
      c4:	e2466001 	sub	r6, r6, #1
      c8:	e3760001 	cmn	r6, #1
      cc:	e2855014 	add	r5, r5, #20
      d0:	1affffe3 	bne	64 <__cs3_start_c+0x20>
      d4:	eb000cf3 	bl	34a8 <__cs3_premain>
      d8:	00000001 	.word	0x00000001
      dc:	00003614 	.word	0x00003614

000000e0 <__cs3_start_asm_sim>:
      e0:	e28f103c 	add	r1, pc, #60	; 0x3c
      e4:	e3a00016 	mov	r0, #22
      e8:	ef123456 	svc	0x00123456
      ec:	e3500000 	cmp	r0, #0
      f0:	ba000008 	blt	118 <ICDISER+0x18>
      f4:	e59f2028 	ldr	r2, [pc, #40]	; 124 <__cs3_heap_start_ptr>
      f8:	e59fd01c 	ldr	sp, [pc, #28]	; 11c <ICDISER+0x1c>
      fc:	e5920008 	ldr	r0, [r2, #8]
     100:	e3500000 	cmp	r0, #0
     104:	11a0d000 	movne	sp, r0
     108:	e59f1010 	ldr	r1, [pc, #16]	; 120 <ICDISER+0x20>
     10c:	e5920004 	ldr	r0, [r2, #4]
     110:	e3500000 	cmp	r0, #0
     114:	15810000 	strne	r0, [r1]
     118:	eaffffc9 	b	44 <__cs3_start_c>
     11c:	3ffffff8 	.word	0x3ffffff8
     120:	00032858 	.word	0x00032858

00000124 <__cs3_heap_start_ptr>:
     124:	00032880 	.word	0x00032880

00000128 <_start>:
     128:	e51fd000 	ldr	sp, [pc, #-0]	; 130 <_start+0x8>
     12c:	eaffffc4 	b	44 <__cs3_start_c>
     130:	3ffffff8 	.word	0x3ffffff8

00000134 <deregister_tm_clones>:
     134:	e92d4008 	push	{r3, lr}
     138:	e59f002c 	ldr	r0, [pc, #44]	; 16c <deregister_tm_clones+0x38>
     13c:	e59f302c 	ldr	r3, [pc, #44]	; 170 <deregister_tm_clones+0x3c>
     140:	e0603003 	rsb	r3, r0, r3
     144:	e3530006 	cmp	r3, #6
     148:	8a000001 	bhi	154 <deregister_tm_clones+0x20>
     14c:	e8bd4008 	pop	{r3, lr}
     150:	e12fff1e 	bx	lr
     154:	e59f3018 	ldr	r3, [pc, #24]	; 174 <deregister_tm_clones+0x40>
     158:	e3530000 	cmp	r3, #0
     15c:	0afffffa 	beq	14c <deregister_tm_clones+0x18>
     160:	e1a0e00f 	mov	lr, pc
     164:	e12fff13 	bx	r3
     168:	eafffff7 	b	14c <deregister_tm_clones+0x18>
     16c:	00032860 	.word	0x00032860
     170:	00032863 	.word	0x00032863
     174:	00000000 	.word	0x00000000

00000178 <register_tm_clones>:
     178:	e92d4008 	push	{r3, lr}
     17c:	e59f0034 	ldr	r0, [pc, #52]	; 1b8 <ICDICER+0x38>
     180:	e59f3034 	ldr	r3, [pc, #52]	; 1bc <ICDICER+0x3c>
     184:	e0603003 	rsb	r3, r0, r3
     188:	e1a03143 	asr	r3, r3, #2
     18c:	e0833fa3 	add	r3, r3, r3, lsr #31
     190:	e1b010c3 	asrs	r1, r3, #1
     194:	1a000001 	bne	1a0 <ICDICER+0x20>
     198:	e8bd4008 	pop	{r3, lr}
     19c:	e12fff1e 	bx	lr
     1a0:	e59f2018 	ldr	r2, [pc, #24]	; 1c0 <ICDICER+0x40>
     1a4:	e3520000 	cmp	r2, #0
     1a8:	0afffffa 	beq	198 <ICDICER+0x18>
     1ac:	e1a0e00f 	mov	lr, pc
     1b0:	e12fff12 	bx	r2
     1b4:	eafffff7 	b	198 <ICDICER+0x18>
     1b8:	00032860 	.word	0x00032860
     1bc:	00032860 	.word	0x00032860
     1c0:	00000000 	.word	0x00000000

000001c4 <__do_global_dtors_aux>:
     1c4:	e92d4010 	push	{r4, lr}
     1c8:	e59f402c 	ldr	r4, [pc, #44]	; 1fc <__do_global_dtors_aux+0x38>
     1cc:	e5d43000 	ldrb	r3, [r4]
     1d0:	e3530000 	cmp	r3, #0
     1d4:	1a000006 	bne	1f4 <__do_global_dtors_aux+0x30>
     1d8:	ebffffd5 	bl	134 <deregister_tm_clones>
     1dc:	e59f301c 	ldr	r3, [pc, #28]	; 200 <__do_global_dtors_aux+0x3c>
     1e0:	e3530000 	cmp	r3, #0
     1e4:	159f0018 	ldrne	r0, [pc, #24]	; 204 <__do_global_dtors_aux+0x40>
     1e8:	1320f000 	nopne	{0}
     1ec:	e3a03001 	mov	r3, #1
     1f0:	e5c43000 	strb	r3, [r4]
     1f4:	e8bd4010 	pop	{r4, lr}
     1f8:	e12fff1e 	bx	lr
     1fc:	00032860 	.word	0x00032860
     200:	00000000 	.word	0x00000000
     204:	00003598 	.word	0x00003598

00000208 <frame_dummy>:
     208:	e92d4008 	push	{r3, lr}
     20c:	e59f3034 	ldr	r3, [pc, #52]	; 248 <frame_dummy+0x40>
     210:	e3530000 	cmp	r3, #0
     214:	159f0030 	ldrne	r0, [pc, #48]	; 24c <frame_dummy+0x44>
     218:	159f1030 	ldrne	r1, [pc, #48]	; 250 <frame_dummy+0x48>
     21c:	1320f000 	nopne	{0}
     220:	e59f002c 	ldr	r0, [pc, #44]	; 254 <frame_dummy+0x4c>
     224:	e5903000 	ldr	r3, [r0]
     228:	e3530000 	cmp	r3, #0
     22c:	0a000003 	beq	240 <frame_dummy+0x38>
     230:	e59f3020 	ldr	r3, [pc, #32]	; 258 <frame_dummy+0x50>
     234:	e3530000 	cmp	r3, #0
     238:	11a0e00f 	movne	lr, pc
     23c:	112fff13 	bxne	r3
     240:	e8bd4008 	pop	{r3, lr}
     244:	eaffffcb 	b	178 <register_tm_clones>
     248:	00000000 	.word	0x00000000
     24c:	00003598 	.word	0x00003598
     250:	00032864 	.word	0x00032864
     254:	00003618 	.word	0x00003618
     258:	00000000 	.word	0x00000000

0000025c <pow>:
#include "./drivers/inc/HEX_displays.h"
#include "./drivers/inc/slider_switches.h"

int volume = 1;
	
float pow(float base, int octave){
     25c:	e92d4800 	push	{r11, lr}
     260:	e28db004 	add	r11, sp, #4
     264:	e24dd008 	sub	sp, sp, #8
     268:	e50b0008 	str	r0, [r11, #-8]
     26c:	e50b100c 	str	r1, [r11, #-12]
	while (octave < 1){
     270:	ea000007 	b	294 <pow+0x38>
		base = (float)base / (float)base;
     274:	e51b0008 	ldr	r0, [r11, #-8]
     278:	e51b1008 	ldr	r1, [r11, #-8]
     27c:	eb000b0a 	bl	2eac <__aeabi_fdiv>
     280:	e1a03000 	mov	r3, r0
     284:	e50b3008 	str	r3, [r11, #-8]
		octave++;
     288:	e51b300c 	ldr	r3, [r11, #-12]
     28c:	e2833001 	add	r3, r3, #1
     290:	e50b300c 	str	r3, [r11, #-12]
#include "./drivers/inc/slider_switches.h"

int volume = 1;
	
float pow(float base, int octave){
	while (octave < 1){
     294:	e51b300c 	ldr	r3, [r11, #-12]
     298:	e3530000 	cmp	r3, #0
     29c:	dafffff4 	ble	274 <pow+0x18>
		base = (float)base / (float)base;
		octave++;
	}
	while (octave > 1){
     2a0:	ea000007 	b	2c4 <pow+0x68>
		base = base*base;
     2a4:	e51b0008 	ldr	r0, [r11, #-8]
     2a8:	e51b1008 	ldr	r1, [r11, #-8]
     2ac:	eb000a98 	bl	2d14 <__aeabi_fmul>
     2b0:	e1a03000 	mov	r3, r0
     2b4:	e50b3008 	str	r3, [r11, #-8]
		octave--;
     2b8:	e51b300c 	ldr	r3, [r11, #-12]
     2bc:	e2433001 	sub	r3, r3, #1
     2c0:	e50b300c 	str	r3, [r11, #-12]
float pow(float base, int octave){
	while (octave < 1){
		base = (float)base / (float)base;
		octave++;
	}
	while (octave > 1){
     2c4:	e51b300c 	ldr	r3, [r11, #-12]
     2c8:	e3530001 	cmp	r3, #1
     2cc:	cafffff4 	bgt	2a4 <pow+0x48>
		base = base*base;
		octave--;
	}
	return base;
     2d0:	e51b3008 	ldr	r3, [r11, #-8]
}
     2d4:	e1a00003 	mov	r0, r3
     2d8:	e24bd004 	sub	sp, r11, #4
     2dc:	e8bd8800 	pop	{r11, pc}

000002e0 <signal>:

int signal(float f, int t, int octave) {
     2e0:	e92d4810 	push	{r4, r11, lr}
     2e4:	e28db008 	add	r11, sp, #8
     2e8:	e24dd02c 	sub	sp, sp, #44	; 0x2c
     2ec:	e50b0028 	str	r0, [r11, #-40]	; 0xffffffd8
     2f0:	e50b102c 	str	r1, [r11, #-44]	; 0xffffffd4
     2f4:	e50b2030 	str	r2, [r11, #-48]	; 0xffffffd0
	int temp = (int)((float)(f * t) * (float)pow(2.0, (octave - 3)));
     2f8:	e51b002c 	ldr	r0, [r11, #-44]	; 0xffffffd4
     2fc:	eb000a4d 	bl	2c38 <__aeabi_i2f>
     300:	e1a03000 	mov	r3, r0
     304:	e1a00003 	mov	r0, r3
     308:	e51b1028 	ldr	r1, [r11, #-40]	; 0xffffffd8
     30c:	eb000a80 	bl	2d14 <__aeabi_fmul>
     310:	e1a03000 	mov	r3, r0
     314:	e1a04003 	mov	r4, r3
     318:	e51b3030 	ldr	r3, [r11, #-48]	; 0xffffffd0
     31c:	e2433003 	sub	r3, r3, #3
     320:	e3a00101 	mov	r0, #1073741824	; 0x40000000
     324:	e1a01003 	mov	r1, r3
     328:	ebffffcb 	bl	25c <pow>
     32c:	e1a03000 	mov	r3, r0
     330:	e1a00004 	mov	r0, r4
     334:	e1a01003 	mov	r1, r3
     338:	eb000a75 	bl	2d14 <__aeabi_fmul>
     33c:	e1a03000 	mov	r3, r0
     340:	e1a00003 	mov	r0, r3
     344:	eb000b75 	bl	3120 <__aeabi_f2iz>
     348:	e1a03000 	mov	r3, r0
     34c:	e50b3010 	str	r3, [r11, #-16]
	int index = temp % 48000;
     350:	e51b3010 	ldr	r3, [r11, #-16]
     354:	e30129f1 	movw	r2, #6641	; 0x19f1
     358:	e3402576 	movt	r2, #1398	; 0x576
     35c:	e0c21392 	smull	r1, r2, r2, r3
     360:	e1a01542 	asr	r1, r2, #10
     364:	e1a02fc3 	asr	r2, r3, #31
     368:	e0622001 	rsb	r2, r2, r1
     36c:	e30b1b80 	movw	r1, #48000	; 0xbb80
     370:	e0020291 	mul	r2, r1, r2
     374:	e0623003 	rsb	r3, r2, r3
     378:	e50b3014 	str	r3, [r11, #-20]	; 0xffffffec
	int indexLeftOfDecimal = (int)index;
     37c:	e51b3014 	ldr	r3, [r11, #-20]	; 0xffffffec
     380:	e50b3018 	str	r3, [r11, #-24]	; 0xffffffe8
	float decimals = index - indexLeftOfDecimal;
     384:	e51b2014 	ldr	r2, [r11, #-20]	; 0xffffffec
     388:	e51b3018 	ldr	r3, [r11, #-24]	; 0xffffffe8
     38c:	e0633002 	rsb	r3, r3, r2
     390:	e1a00003 	mov	r0, r3
     394:	eb000a27 	bl	2c38 <__aeabi_i2f>
     398:	e1a03000 	mov	r3, r0
     39c:	e50b301c 	str	r3, [r11, #-28]	; 0xffffffe4
	float interpolated = (1-decimals)*sine[indexLeftOfDecimal] + (decimals)*sine[indexLeftOfDecimal+1];
     3a0:	e3a005fe 	mov	r0, #1065353216	; 0x3f800000
     3a4:	e51b101c 	ldr	r1, [r11, #-28]	; 0xffffffe4
     3a8:	eb0009b0 	bl	2a70 <__aeabi_fsub>
     3ac:	e1a03000 	mov	r3, r0
     3b0:	e1a04003 	mov	r4, r3
     3b4:	e3033624 	movw	r3, #13860	; 0x3624
     3b8:	e3403000 	movt	r3, #0
     3bc:	e51b2018 	ldr	r2, [r11, #-24]	; 0xffffffe8
     3c0:	e7933102 	ldr	r3, [r3, r2, lsl #2]
     3c4:	e1a00003 	mov	r0, r3
     3c8:	eb000a1a 	bl	2c38 <__aeabi_i2f>
     3cc:	e1a03000 	mov	r3, r0
     3d0:	e1a00004 	mov	r0, r4
     3d4:	e1a01003 	mov	r1, r3
     3d8:	eb000a4d 	bl	2d14 <__aeabi_fmul>
     3dc:	e1a03000 	mov	r3, r0
     3e0:	e1a04003 	mov	r4, r3
     3e4:	e51b3018 	ldr	r3, [r11, #-24]	; 0xffffffe8
     3e8:	e2832001 	add	r2, r3, #1
     3ec:	e3033624 	movw	r3, #13860	; 0x3624
     3f0:	e3403000 	movt	r3, #0
     3f4:	e7933102 	ldr	r3, [r3, r2, lsl #2]
     3f8:	e1a00003 	mov	r0, r3
     3fc:	eb000a0d 	bl	2c38 <__aeabi_i2f>
     400:	e1a03000 	mov	r3, r0
     404:	e1a00003 	mov	r0, r3
     408:	e51b101c 	ldr	r1, [r11, #-28]	; 0xffffffe4
     40c:	eb000a40 	bl	2d14 <__aeabi_fmul>
     410:	e1a03000 	mov	r3, r0
     414:	e1a00004 	mov	r0, r4
     418:	e1a01003 	mov	r1, r3
     41c:	eb000994 	bl	2a74 <__addsf3>
     420:	e1a03000 	mov	r3, r0
     424:	e50b3020 	str	r3, [r11, #-32]	; 0xffffffe0

	// multiply signal by current volume to get appropriate signal amplitude
	return volume * interpolated;
     428:	e3033620 	movw	r3, #13856	; 0x3620
     42c:	e3403000 	movt	r3, #0
     430:	e5933000 	ldr	r3, [r3]
     434:	e1a00003 	mov	r0, r3
     438:	eb0009fe 	bl	2c38 <__aeabi_i2f>
     43c:	e1a03000 	mov	r3, r0
     440:	e1a00003 	mov	r0, r3
     444:	e51b1020 	ldr	r1, [r11, #-32]	; 0xffffffe0
     448:	eb000a31 	bl	2d14 <__aeabi_fmul>
     44c:	e1a03000 	mov	r3, r0
     450:	e1a00003 	mov	r0, r3
     454:	eb000b31 	bl	3120 <__aeabi_f2iz>
     458:	e1a03000 	mov	r3, r0
}
     45c:	e1a00003 	mov	r0, r3
     460:	e24bd008 	sub	sp, r11, #8
     464:	e8bd8810 	pop	{r4, r11, pc}

00000468 <pianoBase>:

void pianoBase(){
     468:	e92d4800 	push	{r11, lr}
     46c:	e28db004 	add	r11, sp, #4
     470:	e24dd018 	sub	sp, sp, #24
	int x,y,j,h,k;
	for (x=0; x<=319; x++){
     474:	e3a03000 	mov	r3, #0
     478:	e50b3008 	str	r3, [r11, #-8]
     47c:	ea00001c 	b	4f4 <pianoBase+0x8c>
		for (y=120; y<=239; y++){ //draws white for keys
     480:	e3a03078 	mov	r3, #120	; 0x78
     484:	e50b300c 	str	r3, [r11, #-12]
     488:	ea000006 	b	4a8 <pianoBase+0x40>
			VGA_draw_point_ASM(x,y,16777215);
     48c:	e51b0008 	ldr	r0, [r11, #-8]
     490:	e51b100c 	ldr	r1, [r11, #-12]
     494:	e3e02000 	mvn	r2, #0
     498:	eb00060f 	bl	1cdc <VGA_draw_point_ASM>
}

void pianoBase(){
	int x,y,j,h,k;
	for (x=0; x<=319; x++){
		for (y=120; y<=239; y++){ //draws white for keys
     49c:	e51b300c 	ldr	r3, [r11, #-12]
     4a0:	e2833001 	add	r3, r3, #1
     4a4:	e50b300c 	str	r3, [r11, #-12]
     4a8:	e51b300c 	ldr	r3, [r11, #-12]
     4ac:	e35300ef 	cmp	r3, #239	; 0xef
     4b0:	dafffff5 	ble	48c <pianoBase+0x24>
			VGA_draw_point_ASM(x,y,16777215);
			}
		for (j=0; j<=119; j++){ //draws background on top
     4b4:	e3a03000 	mov	r3, #0
     4b8:	e50b3010 	str	r3, [r11, #-16]
     4bc:	ea000006 	b	4dc <pianoBase+0x74>
			VGA_draw_point_ASM(x,j,31);
     4c0:	e51b0008 	ldr	r0, [r11, #-8]
     4c4:	e51b1010 	ldr	r1, [r11, #-16]
     4c8:	e3a0201f 	mov	r2, #31
     4cc:	eb000602 	bl	1cdc <VGA_draw_point_ASM>
	int x,y,j,h,k;
	for (x=0; x<=319; x++){
		for (y=120; y<=239; y++){ //draws white for keys
			VGA_draw_point_ASM(x,y,16777215);
			}
		for (j=0; j<=119; j++){ //draws background on top
     4d0:	e51b3010 	ldr	r3, [r11, #-16]
     4d4:	e2833001 	add	r3, r3, #1
     4d8:	e50b3010 	str	r3, [r11, #-16]
     4dc:	e51b3010 	ldr	r3, [r11, #-16]
     4e0:	e3530077 	cmp	r3, #119	; 0x77
     4e4:	dafffff5 	ble	4c0 <pianoBase+0x58>
	return volume * interpolated;
}

void pianoBase(){
	int x,y,j,h,k;
	for (x=0; x<=319; x++){
     4e8:	e51b3008 	ldr	r3, [r11, #-8]
     4ec:	e2833001 	add	r3, r3, #1
     4f0:	e50b3008 	str	r3, [r11, #-8]
     4f4:	e51b2008 	ldr	r2, [r11, #-8]
     4f8:	e300313f 	movw	r3, #319	; 0x13f
     4fc:	e1520003 	cmp	r2, r3
     500:	daffffde 	ble	480 <pianoBase+0x18>
			}
		for (j=0; j<=119; j++){ //draws background on top
			VGA_draw_point_ASM(x,j,31);
			}
	}
	for (x=38; x<=319; x=x+40){
     504:	e3a03026 	mov	r3, #38	; 0x26
     508:	e50b3008 	str	r3, [r11, #-8]
     50c:	ea000027 	b	5b0 <pianoBase+0x148>
		for (h=120; h<=239; h++){
     510:	e3a03078 	mov	r3, #120	; 0x78
     514:	e50b3014 	str	r3, [r11, #-20]	; 0xffffffec
     518:	ea00001e 	b	598 <pianoBase+0x130>
			VGA_draw_point_ASM(x,h,0);
     51c:	e51b0008 	ldr	r0, [r11, #-8]
     520:	e51b1014 	ldr	r1, [r11, #-20]	; 0xffffffec
     524:	e3a02000 	mov	r2, #0
     528:	eb0005eb 	bl	1cdc <VGA_draw_point_ASM>
			VGA_draw_point_ASM(x+1,h,0);
     52c:	e51b3008 	ldr	r3, [r11, #-8]
     530:	e2833001 	add	r3, r3, #1
     534:	e1a00003 	mov	r0, r3
     538:	e51b1014 	ldr	r1, [r11, #-20]	; 0xffffffec
     53c:	e3a02000 	mov	r2, #0
     540:	eb0005e5 	bl	1cdc <VGA_draw_point_ASM>
			VGA_draw_point_ASM(x+2,h,0);
     544:	e51b3008 	ldr	r3, [r11, #-8]
     548:	e2833002 	add	r3, r3, #2
     54c:	e1a00003 	mov	r0, r3
     550:	e51b1014 	ldr	r1, [r11, #-20]	; 0xffffffec
     554:	e3a02000 	mov	r2, #0
     558:	eb0005df 	bl	1cdc <VGA_draw_point_ASM>
			VGA_draw_point_ASM(x+3,h,0);
     55c:	e51b3008 	ldr	r3, [r11, #-8]
     560:	e2833003 	add	r3, r3, #3
     564:	e1a00003 	mov	r0, r3
     568:	e51b1014 	ldr	r1, [r11, #-20]	; 0xffffffec
     56c:	e3a02000 	mov	r2, #0
     570:	eb0005d9 	bl	1cdc <VGA_draw_point_ASM>
			VGA_draw_point_ASM(x+4,h,0);
     574:	e51b3008 	ldr	r3, [r11, #-8]
     578:	e2833004 	add	r3, r3, #4
     57c:	e1a00003 	mov	r0, r3
     580:	e51b1014 	ldr	r1, [r11, #-20]	; 0xffffffec
     584:	e3a02000 	mov	r2, #0
     588:	eb0005d3 	bl	1cdc <VGA_draw_point_ASM>
		for (j=0; j<=119; j++){ //draws background on top
			VGA_draw_point_ASM(x,j,31);
			}
	}
	for (x=38; x<=319; x=x+40){
		for (h=120; h<=239; h++){
     58c:	e51b3014 	ldr	r3, [r11, #-20]	; 0xffffffec
     590:	e2833001 	add	r3, r3, #1
     594:	e50b3014 	str	r3, [r11, #-20]	; 0xffffffec
     598:	e51b3014 	ldr	r3, [r11, #-20]	; 0xffffffec
     59c:	e35300ef 	cmp	r3, #239	; 0xef
     5a0:	daffffdd 	ble	51c <pianoBase+0xb4>
			}
		for (j=0; j<=119; j++){ //draws background on top
			VGA_draw_point_ASM(x,j,31);
			}
	}
	for (x=38; x<=319; x=x+40){
     5a4:	e51b3008 	ldr	r3, [r11, #-8]
     5a8:	e2833028 	add	r3, r3, #40	; 0x28
     5ac:	e50b3008 	str	r3, [r11, #-8]
     5b0:	e51b2008 	ldr	r2, [r11, #-8]
     5b4:	e300313f 	movw	r3, #319	; 0x13f
     5b8:	e1520003 	cmp	r2, r3
     5bc:	daffffd3 	ble	510 <pianoBase+0xa8>
			VGA_draw_point_ASM(x+2,h,0);
			VGA_draw_point_ASM(x+3,h,0);
			VGA_draw_point_ASM(x+4,h,0);
		}	
	}
	for (x=0; x<=2; x++){
     5c0:	e3a03000 	mov	r3, #0
     5c4:	e50b3008 	str	r3, [r11, #-8]
     5c8:	ea00000f 	b	60c <pianoBase+0x1a4>
		for (k=120; k<=239; k++){
     5cc:	e3a03078 	mov	r3, #120	; 0x78
     5d0:	e50b3018 	str	r3, [r11, #-24]	; 0xffffffe8
     5d4:	ea000006 	b	5f4 <pianoBase+0x18c>
			VGA_draw_point_ASM(x,k,0);
     5d8:	e51b0008 	ldr	r0, [r11, #-8]
     5dc:	e51b1018 	ldr	r1, [r11, #-24]	; 0xffffffe8
     5e0:	e3a02000 	mov	r2, #0
     5e4:	eb0005bc 	bl	1cdc <VGA_draw_point_ASM>
			VGA_draw_point_ASM(x+3,h,0);
			VGA_draw_point_ASM(x+4,h,0);
		}	
	}
	for (x=0; x<=2; x++){
		for (k=120; k<=239; k++){
     5e8:	e51b3018 	ldr	r3, [r11, #-24]	; 0xffffffe8
     5ec:	e2833001 	add	r3, r3, #1
     5f0:	e50b3018 	str	r3, [r11, #-24]	; 0xffffffe8
     5f4:	e51b3018 	ldr	r3, [r11, #-24]	; 0xffffffe8
     5f8:	e35300ef 	cmp	r3, #239	; 0xef
     5fc:	dafffff5 	ble	5d8 <pianoBase+0x170>
			VGA_draw_point_ASM(x+2,h,0);
			VGA_draw_point_ASM(x+3,h,0);
			VGA_draw_point_ASM(x+4,h,0);
		}	
	}
	for (x=0; x<=2; x++){
     600:	e51b3008 	ldr	r3, [r11, #-8]
     604:	e2833001 	add	r3, r3, #1
     608:	e50b3008 	str	r3, [r11, #-8]
     60c:	e51b3008 	ldr	r3, [r11, #-8]
     610:	e3530002 	cmp	r3, #2
     614:	daffffec 	ble	5cc <pianoBase+0x164>
		for (k=120; k<=239; k++){
			VGA_draw_point_ASM(x,k,0);
		}
	}
}
     618:	e24bd004 	sub	sp, r11, #4
     61c:	e8bd8800 	pop	{r11, pc}

00000620 <piano>:

void piano(float f, int octave){
     620:	e92d4800 	push	{r11, lr}
     624:	e28db004 	add	r11, sp, #4
     628:	e24dd018 	sub	sp, sp, #24
     62c:	e50b0018 	str	r0, [r11, #-24]	; 0xffffffe8
     630:	e50b101c 	str	r1, [r11, #-28]	; 0xffffffe4
	pianoBase();
     634:	ebffff8b 	bl	468 <pianoBase>
	int x, r;
	int j = ((int)f-100)/14 - 1;
     638:	e51b0018 	ldr	r0, [r11, #-24]	; 0xffffffe8
     63c:	eb000ab7 	bl	3120 <__aeabi_f2iz>
     640:	e1a03000 	mov	r3, r0
     644:	e2433064 	sub	r3, r3, #100	; 0x64
     648:	e3022493 	movw	r2, #9363	; 0x2493
     64c:	e3492249 	movt	r2, #37449	; 0x9249
     650:	e0c21392 	smull	r1, r2, r2, r3
     654:	e0822003 	add	r2, r2, r3
     658:	e1a021c2 	asr	r2, r2, #3
     65c:	e1a03fc3 	asr	r3, r3, #31
     660:	e0633002 	rsb	r3, r3, r2
     664:	e2433001 	sub	r3, r3, #1
     668:	e50b3010 	str	r3, [r11, #-16]
	
	// update the volume and octave
    VGA_write_char_ASM(7, 0, volume + 48);
     66c:	e3033620 	movw	r3, #13856	; 0x3620
     670:	e3403000 	movt	r3, #0
     674:	e5933000 	ldr	r3, [r3]
     678:	e6ef3073 	uxtb	r3, r3
     67c:	e2833030 	add	r3, r3, #48	; 0x30
     680:	e6ef3073 	uxtb	r3, r3
     684:	e3a00007 	mov	r0, #7
     688:	e3a01000 	mov	r1, #0
     68c:	e1a02003 	mov	r2, r3
     690:	eb00056d 	bl	1c4c <VGA_write_char_ASM>
	VGA_write_char_ASM(7, 2, octave + 48);	
     694:	e51b301c 	ldr	r3, [r11, #-28]	; 0xffffffe4
     698:	e6ef3073 	uxtb	r3, r3
     69c:	e2833030 	add	r3, r3, #48	; 0x30
     6a0:	e6ef3073 	uxtb	r3, r3
     6a4:	e3a00007 	mov	r0, #7
     6a8:	e3a01002 	mov	r1, #2
     6ac:	e1a02003 	mov	r2, r3
     6b0:	eb000565 	bl	1c4c <VGA_write_char_ASM>

	if (j > 6){
     6b4:	e51b3010 	ldr	r3, [r11, #-16]
     6b8:	e3530006 	cmp	r3, #6
     6bc:	da000008 	ble	6e4 <piano+0xc4>
		j = j - 1;
     6c0:	e51b3010 	ldr	r3, [r11, #-16]
     6c4:	e2433001 	sub	r3, r3, #1
     6c8:	e50b3010 	str	r3, [r11, #-16]
		if (j > 7){
     6cc:	e51b3010 	ldr	r3, [r11, #-16]
     6d0:	e3530007 	cmp	r3, #7
     6d4:	da000002 	ble	6e4 <piano+0xc4>
			j = j - 1;
     6d8:	e51b3010 	ldr	r3, [r11, #-16]
     6dc:	e2433001 	sub	r3, r3, #1
     6e0:	e50b3010 	str	r3, [r11, #-16]
		}
	}
	for (x = 3; x <= 37; x++){
     6e4:	e3a03003 	mov	r3, #3
     6e8:	e50b3008 	str	r3, [r11, #-8]
     6ec:	ea000018 	b	754 <piano+0x134>
		for (r = 120; r <= 239; r++){
     6f0:	e3a03078 	mov	r3, #120	; 0x78
     6f4:	e50b300c 	str	r3, [r11, #-12]
     6f8:	ea00000f 	b	73c <piano+0x11c>
			VGA_draw_point_ASM((j - 1) * 40 + x, r, 16000);
     6fc:	e51b3010 	ldr	r3, [r11, #-16]
     700:	e2432001 	sub	r2, r3, #1
     704:	e1a03002 	mov	r3, r2
     708:	e1a03103 	lsl	r3, r3, #2
     70c:	e0833002 	add	r3, r3, r2
     710:	e1a03183 	lsl	r3, r3, #3
     714:	e1a02003 	mov	r2, r3
     718:	e51b3008 	ldr	r3, [r11, #-8]
     71c:	e0823003 	add	r3, r2, r3
     720:	e1a00003 	mov	r0, r3
     724:	e51b100c 	ldr	r1, [r11, #-12]
     728:	e3a02dfa 	mov	r2, #16000	; 0x3e80
     72c:	eb00056a 	bl	1cdc <VGA_draw_point_ASM>
		if (j > 7){
			j = j - 1;
		}
	}
	for (x = 3; x <= 37; x++){
		for (r = 120; r <= 239; r++){
     730:	e51b300c 	ldr	r3, [r11, #-12]
     734:	e2833001 	add	r3, r3, #1
     738:	e50b300c 	str	r3, [r11, #-12]
     73c:	e51b300c 	ldr	r3, [r11, #-12]
     740:	e35300ef 	cmp	r3, #239	; 0xef
     744:	daffffec 	ble	6fc <piano+0xdc>
		j = j - 1;
		if (j > 7){
			j = j - 1;
		}
	}
	for (x = 3; x <= 37; x++){
     748:	e51b3008 	ldr	r3, [r11, #-8]
     74c:	e2833001 	add	r3, r3, #1
     750:	e50b3008 	str	r3, [r11, #-8]
     754:	e51b3008 	ldr	r3, [r11, #-8]
     758:	e3530025 	cmp	r3, #37	; 0x25
     75c:	daffffe3 	ble	6f0 <piano+0xd0>
		for (r = 120; r <= 239; r++){
			VGA_draw_point_ASM((j - 1) * 40 + x, r, 16000);
		}
	}
}
     760:	e24bd004 	sub	sp, r11, #4
     764:	e8bd8800 	pop	{r11, pc}

00000768 <wave>:

void wave(float f, int volume, int octave) {
     768:	e92d4810 	push	{r4, r11, lr}
     76c:	e28db008 	add	r11, sp, #8
     770:	e24dd02c 	sub	sp, sp, #44	; 0x2c
     774:	e50b0028 	str	r0, [r11, #-40]	; 0xffffffd8
     778:	e50b102c 	str	r1, [r11, #-44]	; 0xffffffd4
     77c:	e50b2030 	str	r2, [r11, #-48]	; 0xffffffd0
	// clear the screen of old data
	VGA_clear_pixelbuff_ASM();
     780:	eb000521 	bl	1c0c <VGA_clear_pixelbuff_ASM>

	if (f) {									// only display anything if the frequency is above 0
     784:	e51b0028 	ldr	r0, [r11, #-40]	; 0xffffffd8
     788:	e3a01000 	mov	r1, #0
     78c:	eb000a45 	bl	30a8 <__aeabi_fcmpeq>
     790:	e1a03000 	mov	r3, r0
     794:	e3530000 	cmp	r3, #0
     798:	1a00008a 	bne	9c8 <ICDIPTR+0x1c8>
		int x, y;
		short colour = 16777215; // white
     79c:	e3e03000 	mvn	r3, #0
     7a0:	e14b31b6 	strh	r3, [r11, #-22]	; 0xffffffea

		// update the volume and octave
	    VGA_write_char_ASM(7, 0, volume + 48);
     7a4:	e51b302c 	ldr	r3, [r11, #-44]	; 0xffffffd4
     7a8:	e6ef3073 	uxtb	r3, r3
     7ac:	e2833030 	add	r3, r3, #48	; 0x30
     7b0:	e6ef3073 	uxtb	r3, r3
     7b4:	e3a00007 	mov	r0, #7
     7b8:	e3a01000 	mov	r1, #0
     7bc:	e1a02003 	mov	r2, r3
     7c0:	eb000521 	bl	1c4c <VGA_write_char_ASM>
		VGA_write_char_ASM(7, 2, octave + 48);	
     7c4:	e51b3030 	ldr	r3, [r11, #-48]	; 0xffffffd0
     7c8:	e6ef3073 	uxtb	r3, r3
     7cc:	e2833030 	add	r3, r3, #48	; 0x30
     7d0:	e6ef3073 	uxtb	r3, r3
     7d4:	e3a00007 	mov	r0, #7
     7d8:	e3a01002 	mov	r1, #2
     7dc:	e1a02003 	mov	r2, r3
     7e0:	eb000519 	bl	1c4c <VGA_write_char_ASM>

		// iterate through all of the pixels on the screen
		int increment = (int)((float)(48000 / ((320.00 / f) * 50.00)) * (float)(pow(2.0, (octave - 3))));
     7e4:	e51b0028 	ldr	r0, [r11, #-40]	; 0xffffffd8
     7e8:	eb000722 	bl	2478 <__aeabi_f2d>
     7ec:	e1a02000 	mov	r2, r0
     7f0:	e1a03001 	mov	r3, r1
     7f4:	e3a00000 	mov	r0, #0
     7f8:	e3a01000 	mov	r1, #0
     7fc:	e3441074 	movt	r1, #16500	; 0x4074
     800:	eb0007ed 	bl	27bc <__aeabi_ddiv>
     804:	e1a02000 	mov	r2, r0
     808:	e1a03001 	mov	r3, r1
     80c:	e1a00002 	mov	r0, r2
     810:	e1a01003 	mov	r1, r3
     814:	e3a02000 	mov	r2, #0
     818:	e3a03000 	mov	r3, #0
     81c:	e3443049 	movt	r3, #16457	; 0x4049
     820:	eb000741 	bl	252c <__aeabi_dmul>
     824:	e1a02000 	mov	r2, r0
     828:	e1a03001 	mov	r3, r1
     82c:	e3a00000 	mov	r0, #0
     830:	e3a01a07 	mov	r1, #28672	; 0x7000
     834:	e34410e7 	movt	r1, #16615	; 0x40e7
     838:	eb0007df 	bl	27bc <__aeabi_ddiv>
     83c:	e1a02000 	mov	r2, r0
     840:	e1a03001 	mov	r3, r1
     844:	e1a00002 	mov	r0, r2
     848:	e1a01003 	mov	r1, r3
     84c:	eb00085d 	bl	29c8 <__aeabi_d2f>
     850:	e1a04000 	mov	r4, r0
     854:	e51b3030 	ldr	r3, [r11, #-48]	; 0xffffffd0
     858:	e2433003 	sub	r3, r3, #3
     85c:	e3a00101 	mov	r0, #1073741824	; 0x40000000
     860:	e1a01003 	mov	r1, r3
     864:	ebfffe7c 	bl	25c <pow>
     868:	e1a03000 	mov	r3, r0
     86c:	e1a00004 	mov	r0, r4
     870:	e1a01003 	mov	r1, r3
     874:	eb000926 	bl	2d14 <__aeabi_fmul>
     878:	e1a03000 	mov	r3, r0
     87c:	e1a00003 	mov	r0, r3
     880:	eb000a26 	bl	3120 <__aeabi_f2iz>
     884:	e1a03000 	mov	r3, r0
     888:	e50b301c 	str	r3, [r11, #-28]	; 0xffffffe4
			// 320 = number of spaces in the x direction in the pixel buffer
			// 50 Hz = base frequency
			// f = current signal frequency
			// adjustment made for current octave

		int xposition = 0; //initial x position is set in the sine wave
     88c:	e3a03000 	mov	r3, #0
     890:	e50b3014 	str	r3, [r11, #-20]	; 0xffffffec
		
		// iterate through the x direction of the pixel buffer
		for(x = 0; x <= 319; x++) {
     894:	e3a03000 	mov	r3, #0
     898:	e50b3010 	str	r3, [r11, #-16]
     89c:	ea000045 	b	9b8 <ICDIPTR+0x1b8>
			// generate the y position of the wave at the current x position
				// uses the provided wavetable, sine[x]
				// amplitude of wave on screen increases by 15 for each volume increment
			y = -1*(int)((float)sine[xposition] * ((float)30 / (float)(sine[12000]))) * ((float)volume / (float)2) + 120;		
     8a0:	e3033624 	movw	r3, #13860	; 0x3624
     8a4:	e3403000 	movt	r3, #0
     8a8:	e51b2014 	ldr	r2, [r11, #-20]	; 0xffffffec
     8ac:	e7933102 	ldr	r3, [r3, r2, lsl #2]
     8b0:	e1a00003 	mov	r0, r3
     8b4:	eb0008df 	bl	2c38 <__aeabi_i2f>
     8b8:	e1a04000 	mov	r4, r0
     8bc:	e3033624 	movw	r3, #13860	; 0x3624
     8c0:	e3403000 	movt	r3, #0
     8c4:	e30b2b80 	movw	r2, #48000	; 0xbb80
     8c8:	e7933002 	ldr	r3, [r3, r2]
     8cc:	e1a00003 	mov	r0, r3
     8d0:	eb0008d8 	bl	2c38 <__aeabi_i2f>
     8d4:	e1a03000 	mov	r3, r0
     8d8:	e3a00000 	mov	r0, #0
     8dc:	e34401f0 	movt	r0, #16880	; 0x41f0
     8e0:	e1a01003 	mov	r1, r3
     8e4:	eb000970 	bl	2eac <__aeabi_fdiv>
     8e8:	e1a03000 	mov	r3, r0
     8ec:	e1a00004 	mov	r0, r4
     8f0:	e1a01003 	mov	r1, r3
     8f4:	eb000906 	bl	2d14 <__aeabi_fmul>
     8f8:	e1a03000 	mov	r3, r0
     8fc:	e1a00003 	mov	r0, r3
     900:	eb000a06 	bl	3120 <__aeabi_f2iz>
     904:	e1a03000 	mov	r3, r0
     908:	e2633000 	rsb	r3, r3, #0
     90c:	e1a00003 	mov	r0, r3
     910:	eb0008c8 	bl	2c38 <__aeabi_i2f>
     914:	e1a04000 	mov	r4, r0
     918:	e51b002c 	ldr	r0, [r11, #-44]	; 0xffffffd4
     91c:	eb0008c5 	bl	2c38 <__aeabi_i2f>
     920:	e1a03000 	mov	r3, r0
     924:	e1a00003 	mov	r0, r3
     928:	e3a01101 	mov	r1, #1073741824	; 0x40000000
     92c:	eb00095e 	bl	2eac <__aeabi_fdiv>
     930:	e1a03000 	mov	r3, r0
     934:	e1a00004 	mov	r0, r4
     938:	e1a01003 	mov	r1, r3
     93c:	eb0008f4 	bl	2d14 <__aeabi_fmul>
     940:	e1a03000 	mov	r3, r0
     944:	e1a00003 	mov	r0, r3
     948:	e3a01000 	mov	r1, #0
     94c:	e34412f0 	movt	r1, #17136	; 0x42f0
     950:	eb000847 	bl	2a74 <__addsf3>
     954:	e1a03000 	mov	r3, r0
     958:	e1a00003 	mov	r0, r3
     95c:	eb0009ef 	bl	3120 <__aeabi_f2iz>
     960:	e1a03000 	mov	r3, r0
     964:	e50b3020 	str	r3, [r11, #-32]	; 0xffffffe0
			
			// draw the point on the screen
			VGA_draw_point_ASM(x, y, colour);
     968:	e15b31f6 	ldrsh	r3, [r11, #-22]	; 0xffffffea
     96c:	e51b0010 	ldr	r0, [r11, #-16]
     970:	e51b1020 	ldr	r1, [r11, #-32]	; 0xffffffe0
     974:	e1a02003 	mov	r2, r3
     978:	eb0004d7 	bl	1cdc <VGA_draw_point_ASM>
			
			// increase the x position by the appropriate increment for this frequency
			xposition = xposition + increment;
     97c:	e51b2014 	ldr	r2, [r11, #-20]	; 0xffffffec
     980:	e51b301c 	ldr	r3, [r11, #-28]	; 0xffffffe4
     984:	e0823003 	add	r3, r2, r3
     988:	e50b3014 	str	r3, [r11, #-20]	; 0xffffffec
			
			// reset when the number of samples is exceeded
			if (xposition > 48000){
     98c:	e51b2014 	ldr	r2, [r11, #-20]	; 0xffffffec
     990:	e30b3b80 	movw	r3, #48000	; 0xbb80
     994:	e1520003 	cmp	r2, r3
     998:	da000003 	ble	9ac <ICDIPTR+0x1ac>
				xposition = xposition - 48000; //Resets iteration of the sine wave
     99c:	e51b3014 	ldr	r3, [r11, #-20]	; 0xffffffec
     9a0:	e2433cbb 	sub	r3, r3, #47872	; 0xbb00
     9a4:	e2433080 	sub	r3, r3, #128	; 0x80
     9a8:	e50b3014 	str	r3, [r11, #-20]	; 0xffffffec
			// adjustment made for current octave

		int xposition = 0; //initial x position is set in the sine wave
		
		// iterate through the x direction of the pixel buffer
		for(x = 0; x <= 319; x++) {
     9ac:	e51b3010 	ldr	r3, [r11, #-16]
     9b0:	e2833001 	add	r3, r3, #1
     9b4:	e50b3010 	str	r3, [r11, #-16]
     9b8:	e51b2010 	ldr	r2, [r11, #-16]
     9bc:	e300313f 	movw	r3, #319	; 0x13f
     9c0:	e1520003 	cmp	r2, r3
     9c4:	daffffb5 	ble	8a0 <ICDIPTR+0xa0>
			
			// change the wave colour as we go for extra #funtimes
			//colour=colour+128;
		}
	}
}
     9c8:	e24bd008 	sub	sp, r11, #8
     9cc:	e8bd8810 	pop	{r4, r11, pc}

000009d0 <displayInstructions>:

void displayInstructions() {
     9d0:	e92d4800 	push	{r11, lr}
     9d4:	e28db004 	add	r11, sp, #4
	VGA_clear_charbuff_ASM();
     9d8:	eb00047b 	bl	1bcc <VGA_clear_charbuff_ASM>
	VGA_clear_pixelbuff_ASM();
     9dc:	eb00048a 	bl	1c0c <VGA_clear_pixelbuff_ASM>

	// Display initial volume
	VGA_write_char_ASM(0,0, 'V');
     9e0:	e3a00000 	mov	r0, #0
     9e4:	e3a01000 	mov	r1, #0
     9e8:	e3a02056 	mov	r2, #86	; 0x56
     9ec:	eb000496 	bl	1c4c <VGA_write_char_ASM>
	VGA_write_char_ASM(1,0, 'O');
     9f0:	e3a00001 	mov	r0, #1
     9f4:	e3a01000 	mov	r1, #0
     9f8:	e3a0204f 	mov	r2, #79	; 0x4f
     9fc:	eb000492 	bl	1c4c <VGA_write_char_ASM>
	VGA_write_char_ASM(2,0, 'L');
     a00:	e3a00002 	mov	r0, #2
     a04:	e3a01000 	mov	r1, #0
     a08:	e3a0204c 	mov	r2, #76	; 0x4c
     a0c:	eb00048e 	bl	1c4c <VGA_write_char_ASM>
	VGA_write_char_ASM(3,0, 'U');
     a10:	e3a00003 	mov	r0, #3
     a14:	e3a01000 	mov	r1, #0
     a18:	e3a02055 	mov	r2, #85	; 0x55
     a1c:	eb00048a 	bl	1c4c <VGA_write_char_ASM>
	VGA_write_char_ASM(4,0, 'M');
     a20:	e3a00004 	mov	r0, #4
     a24:	e3a01000 	mov	r1, #0
     a28:	e3a0204d 	mov	r2, #77	; 0x4d
     a2c:	eb000486 	bl	1c4c <VGA_write_char_ASM>
	VGA_write_char_ASM(5,0, 'E');
     a30:	e3a00005 	mov	r0, #5
     a34:	e3a01000 	mov	r1, #0
     a38:	e3a02045 	mov	r2, #69	; 0x45
     a3c:	eb000482 	bl	1c4c <VGA_write_char_ASM>
	VGA_write_char_ASM(6,0, ':');
     a40:	e3a00006 	mov	r0, #6
     a44:	e3a01000 	mov	r1, #0
     a48:	e3a0203a 	mov	r2, #58	; 0x3a
     a4c:	eb00047e 	bl	1c4c <VGA_write_char_ASM>
	VGA_write_char_ASM(7,0, '1');
     a50:	e3a00007 	mov	r0, #7
     a54:	e3a01000 	mov	r1, #0
     a58:	e3a02031 	mov	r2, #49	; 0x31
     a5c:	eb00047a 	bl	1c4c <VGA_write_char_ASM>

	// Display intial octave
	VGA_write_char_ASM(0,2, 'O');
     a60:	e3a00000 	mov	r0, #0
     a64:	e3a01002 	mov	r1, #2
     a68:	e3a0204f 	mov	r2, #79	; 0x4f
     a6c:	eb000476 	bl	1c4c <VGA_write_char_ASM>
	VGA_write_char_ASM(1,2, 'C');
     a70:	e3a00001 	mov	r0, #1
     a74:	e3a01002 	mov	r1, #2
     a78:	e3a02043 	mov	r2, #67	; 0x43
     a7c:	eb000472 	bl	1c4c <VGA_write_char_ASM>
	VGA_write_char_ASM(2,2, 'T');
     a80:	e3a00002 	mov	r0, #2
     a84:	e3a01002 	mov	r1, #2
     a88:	e3a02054 	mov	r2, #84	; 0x54
     a8c:	eb00046e 	bl	1c4c <VGA_write_char_ASM>
	VGA_write_char_ASM(3,2, 'A');
     a90:	e3a00003 	mov	r0, #3
     a94:	e3a01002 	mov	r1, #2
     a98:	e3a02041 	mov	r2, #65	; 0x41
     a9c:	eb00046a 	bl	1c4c <VGA_write_char_ASM>
	VGA_write_char_ASM(4,2, 'V');
     aa0:	e3a00004 	mov	r0, #4
     aa4:	e3a01002 	mov	r1, #2
     aa8:	e3a02056 	mov	r2, #86	; 0x56
     aac:	eb000466 	bl	1c4c <VGA_write_char_ASM>
	VGA_write_char_ASM(5,2, 'E');
     ab0:	e3a00005 	mov	r0, #5
     ab4:	e3a01002 	mov	r1, #2
     ab8:	e3a02045 	mov	r2, #69	; 0x45
     abc:	eb000462 	bl	1c4c <VGA_write_char_ASM>
	VGA_write_char_ASM(6,2, ':');
     ac0:	e3a00006 	mov	r0, #6
     ac4:	e3a01002 	mov	r1, #2
     ac8:	e3a0203a 	mov	r2, #58	; 0x3a
     acc:	eb00045e 	bl	1c4c <VGA_write_char_ASM>
	VGA_write_char_ASM(7,2, '3');
     ad0:	e3a00007 	mov	r0, #7
     ad4:	e3a01002 	mov	r1, #2
     ad8:	e3a02033 	mov	r2, #51	; 0x33
     adc:	eb00045a 	bl	1c4c <VGA_write_char_ASM>

	// display instructions
	VGA_write_char_ASM(61,0, 'C');
     ae0:	e3a0003d 	mov	r0, #61	; 0x3d
     ae4:	e3a01000 	mov	r1, #0
     ae8:	e3a02043 	mov	r2, #67	; 0x43
     aec:	eb000456 	bl	1c4c <VGA_write_char_ASM>
	VGA_write_char_ASM(62,0, ' ');
     af0:	e3a0003e 	mov	r0, #62	; 0x3e
     af4:	e3a01000 	mov	r1, #0
     af8:	e3a02020 	mov	r2, #32
     afc:	eb000452 	bl	1c4c <VGA_write_char_ASM>
	VGA_write_char_ASM(63,0, '=');
     b00:	e3a0003f 	mov	r0, #63	; 0x3f
     b04:	e3a01000 	mov	r1, #0
     b08:	e3a0203d 	mov	r2, #61	; 0x3d
     b0c:	eb00044e 	bl	1c4c <VGA_write_char_ASM>
	VGA_write_char_ASM(64,0, ' ');
     b10:	e3a00040 	mov	r0, #64	; 0x40
     b14:	e3a01000 	mov	r1, #0
     b18:	e3a02020 	mov	r2, #32
     b1c:	eb00044a 	bl	1c4c <VGA_write_char_ASM>
	VGA_write_char_ASM(65,0, 'D');
     b20:	e3a00041 	mov	r0, #65	; 0x41
     b24:	e3a01000 	mov	r1, #0
     b28:	e3a02044 	mov	r2, #68	; 0x44
     b2c:	eb000446 	bl	1c4c <VGA_write_char_ASM>
	VGA_write_char_ASM(66,0, 'E');
     b30:	e3a00042 	mov	r0, #66	; 0x42
     b34:	e3a01000 	mov	r1, #0
     b38:	e3a02045 	mov	r2, #69	; 0x45
     b3c:	eb000442 	bl	1c4c <VGA_write_char_ASM>
	VGA_write_char_ASM(67,0, 'C');
     b40:	e3a00043 	mov	r0, #67	; 0x43
     b44:	e3a01000 	mov	r1, #0
     b48:	e3a02043 	mov	r2, #67	; 0x43
     b4c:	eb00043e 	bl	1c4c <VGA_write_char_ASM>
	VGA_write_char_ASM(68,0, 'R');
     b50:	e3a00044 	mov	r0, #68	; 0x44
     b54:	e3a01000 	mov	r1, #0
     b58:	e3a02052 	mov	r2, #82	; 0x52
     b5c:	eb00043a 	bl	1c4c <VGA_write_char_ASM>
	VGA_write_char_ASM(69,0, 'E');
     b60:	e3a00045 	mov	r0, #69	; 0x45
     b64:	e3a01000 	mov	r1, #0
     b68:	e3a02045 	mov	r2, #69	; 0x45
     b6c:	eb000436 	bl	1c4c <VGA_write_char_ASM>
	VGA_write_char_ASM(70,0, 'A');
     b70:	e3a00046 	mov	r0, #70	; 0x46
     b74:	e3a01000 	mov	r1, #0
     b78:	e3a02041 	mov	r2, #65	; 0x41
     b7c:	eb000432 	bl	1c4c <VGA_write_char_ASM>
	VGA_write_char_ASM(71,0, 'S');
     b80:	e3a00047 	mov	r0, #71	; 0x47
     b84:	e3a01000 	mov	r1, #0
     b88:	e3a02053 	mov	r2, #83	; 0x53
     b8c:	eb00042e 	bl	1c4c <VGA_write_char_ASM>
	VGA_write_char_ASM(72,0, 'E');
     b90:	e3a00048 	mov	r0, #72	; 0x48
     b94:	e3a01000 	mov	r1, #0
     b98:	e3a02045 	mov	r2, #69	; 0x45
     b9c:	eb00042a 	bl	1c4c <VGA_write_char_ASM>
	VGA_write_char_ASM(73,0, ' ');
     ba0:	e3a00049 	mov	r0, #73	; 0x49
     ba4:	e3a01000 	mov	r1, #0
     ba8:	e3a02020 	mov	r2, #32
     bac:	eb000426 	bl	1c4c <VGA_write_char_ASM>
	VGA_write_char_ASM(74,0, 'V');
     bb0:	e3a0004a 	mov	r0, #74	; 0x4a
     bb4:	e3a01000 	mov	r1, #0
     bb8:	e3a02056 	mov	r2, #86	; 0x56
     bbc:	eb000422 	bl	1c4c <VGA_write_char_ASM>
	VGA_write_char_ASM(75,0, 'O');
     bc0:	e3a0004b 	mov	r0, #75	; 0x4b
     bc4:	e3a01000 	mov	r1, #0
     bc8:	e3a0204f 	mov	r2, #79	; 0x4f
     bcc:	eb00041e 	bl	1c4c <VGA_write_char_ASM>
	VGA_write_char_ASM(76,0, 'L');
     bd0:	e3a0004c 	mov	r0, #76	; 0x4c
     bd4:	e3a01000 	mov	r1, #0
     bd8:	e3a0204c 	mov	r2, #76	; 0x4c
     bdc:	eb00041a 	bl	1c4c <VGA_write_char_ASM>
	VGA_write_char_ASM(77,0, 'U');
     be0:	e3a0004d 	mov	r0, #77	; 0x4d
     be4:	e3a01000 	mov	r1, #0
     be8:	e3a02055 	mov	r2, #85	; 0x55
     bec:	eb000416 	bl	1c4c <VGA_write_char_ASM>
	VGA_write_char_ASM(78,0, 'M');
     bf0:	e3a0004e 	mov	r0, #78	; 0x4e
     bf4:	e3a01000 	mov	r1, #0
     bf8:	e3a0204d 	mov	r2, #77	; 0x4d
     bfc:	eb000412 	bl	1c4c <VGA_write_char_ASM>
	VGA_write_char_ASM(79,0, 'E');
     c00:	e3a0004f 	mov	r0, #79	; 0x4f
     c04:	e3a01000 	mov	r1, #0
     c08:	e3a02045 	mov	r2, #69	; 0x45
     c0c:	eb00040e 	bl	1c4c <VGA_write_char_ASM>

	VGA_write_char_ASM(61,1, 'V');
     c10:	e3a0003d 	mov	r0, #61	; 0x3d
     c14:	e3a01001 	mov	r1, #1
     c18:	e3a02056 	mov	r2, #86	; 0x56
     c1c:	eb00040a 	bl	1c4c <VGA_write_char_ASM>
	VGA_write_char_ASM(62,1, ' ');
     c20:	e3a0003e 	mov	r0, #62	; 0x3e
     c24:	e3a01001 	mov	r1, #1
     c28:	e3a02020 	mov	r2, #32
     c2c:	eb000406 	bl	1c4c <VGA_write_char_ASM>
	VGA_write_char_ASM(63,1, '=');
     c30:	e3a0003f 	mov	r0, #63	; 0x3f
     c34:	e3a01001 	mov	r1, #1
     c38:	e3a0203d 	mov	r2, #61	; 0x3d
     c3c:	eb000402 	bl	1c4c <VGA_write_char_ASM>
	VGA_write_char_ASM(64,1, ' ');
     c40:	e3a00040 	mov	r0, #64	; 0x40
     c44:	e3a01001 	mov	r1, #1
     c48:	e3a02020 	mov	r2, #32
     c4c:	eb0003fe 	bl	1c4c <VGA_write_char_ASM>
	VGA_write_char_ASM(65,1, 'I');
     c50:	e3a00041 	mov	r0, #65	; 0x41
     c54:	e3a01001 	mov	r1, #1
     c58:	e3a02049 	mov	r2, #73	; 0x49
     c5c:	eb0003fa 	bl	1c4c <VGA_write_char_ASM>
	VGA_write_char_ASM(66,1, 'N');
     c60:	e3a00042 	mov	r0, #66	; 0x42
     c64:	e3a01001 	mov	r1, #1
     c68:	e3a0204e 	mov	r2, #78	; 0x4e
     c6c:	eb0003f6 	bl	1c4c <VGA_write_char_ASM>
	VGA_write_char_ASM(67,1, 'C');
     c70:	e3a00043 	mov	r0, #67	; 0x43
     c74:	e3a01001 	mov	r1, #1
     c78:	e3a02043 	mov	r2, #67	; 0x43
     c7c:	eb0003f2 	bl	1c4c <VGA_write_char_ASM>
	VGA_write_char_ASM(68,1, 'R');
     c80:	e3a00044 	mov	r0, #68	; 0x44
     c84:	e3a01001 	mov	r1, #1
     c88:	e3a02052 	mov	r2, #82	; 0x52
     c8c:	eb0003ee 	bl	1c4c <VGA_write_char_ASM>
	VGA_write_char_ASM(69,1, 'E');
     c90:	e3a00045 	mov	r0, #69	; 0x45
     c94:	e3a01001 	mov	r1, #1
     c98:	e3a02045 	mov	r2, #69	; 0x45
     c9c:	eb0003ea 	bl	1c4c <VGA_write_char_ASM>
	VGA_write_char_ASM(70,1, 'A');
     ca0:	e3a00046 	mov	r0, #70	; 0x46
     ca4:	e3a01001 	mov	r1, #1
     ca8:	e3a02041 	mov	r2, #65	; 0x41
     cac:	eb0003e6 	bl	1c4c <VGA_write_char_ASM>
	VGA_write_char_ASM(71,1, 'S');
     cb0:	e3a00047 	mov	r0, #71	; 0x47
     cb4:	e3a01001 	mov	r1, #1
     cb8:	e3a02053 	mov	r2, #83	; 0x53
     cbc:	eb0003e2 	bl	1c4c <VGA_write_char_ASM>
	VGA_write_char_ASM(72,1, 'E');
     cc0:	e3a00048 	mov	r0, #72	; 0x48
     cc4:	e3a01001 	mov	r1, #1
     cc8:	e3a02045 	mov	r2, #69	; 0x45
     ccc:	eb0003de 	bl	1c4c <VGA_write_char_ASM>
	VGA_write_char_ASM(73,1, ' ');
     cd0:	e3a00049 	mov	r0, #73	; 0x49
     cd4:	e3a01001 	mov	r1, #1
     cd8:	e3a02020 	mov	r2, #32
     cdc:	eb0003da 	bl	1c4c <VGA_write_char_ASM>
	VGA_write_char_ASM(74,1, 'V');
     ce0:	e3a0004a 	mov	r0, #74	; 0x4a
     ce4:	e3a01001 	mov	r1, #1
     ce8:	e3a02056 	mov	r2, #86	; 0x56
     cec:	eb0003d6 	bl	1c4c <VGA_write_char_ASM>
	VGA_write_char_ASM(75,1, 'O');
     cf0:	e3a0004b 	mov	r0, #75	; 0x4b
     cf4:	e3a01001 	mov	r1, #1
     cf8:	e3a0204f 	mov	r2, #79	; 0x4f
     cfc:	eb0003d2 	bl	1c4c <VGA_write_char_ASM>
	VGA_write_char_ASM(76,1, 'L');
     d00:	e3a0004c 	mov	r0, #76	; 0x4c
     d04:	e3a01001 	mov	r1, #1
     d08:	e3a0204c 	mov	r2, #76	; 0x4c
     d0c:	eb0003ce 	bl	1c4c <VGA_write_char_ASM>
	VGA_write_char_ASM(77,1, 'U');
     d10:	e3a0004d 	mov	r0, #77	; 0x4d
     d14:	e3a01001 	mov	r1, #1
     d18:	e3a02055 	mov	r2, #85	; 0x55
     d1c:	eb0003ca 	bl	1c4c <VGA_write_char_ASM>
	VGA_write_char_ASM(78,1, 'M');
     d20:	e3a0004e 	mov	r0, #78	; 0x4e
     d24:	e3a01001 	mov	r1, #1
     d28:	e3a0204d 	mov	r2, #77	; 0x4d
     d2c:	eb0003c6 	bl	1c4c <VGA_write_char_ASM>
	VGA_write_char_ASM(79,1, 'E');
     d30:	e3a0004f 	mov	r0, #79	; 0x4f
     d34:	e3a01001 	mov	r1, #1
     d38:	e3a02045 	mov	r2, #69	; 0x45
     d3c:	eb0003c2 	bl	1c4c <VGA_write_char_ASM>

	VGA_write_char_ASM(61,2, 'B');
     d40:	e3a0003d 	mov	r0, #61	; 0x3d
     d44:	e3a01002 	mov	r1, #2
     d48:	e3a02042 	mov	r2, #66	; 0x42
     d4c:	eb0003be 	bl	1c4c <VGA_write_char_ASM>
	VGA_write_char_ASM(62,2, ' ');
     d50:	e3a0003e 	mov	r0, #62	; 0x3e
     d54:	e3a01002 	mov	r1, #2
     d58:	e3a02020 	mov	r2, #32
     d5c:	eb0003ba 	bl	1c4c <VGA_write_char_ASM>
	VGA_write_char_ASM(63,2, '=');
     d60:	e3a0003f 	mov	r0, #63	; 0x3f
     d64:	e3a01002 	mov	r1, #2
     d68:	e3a0203d 	mov	r2, #61	; 0x3d
     d6c:	eb0003b6 	bl	1c4c <VGA_write_char_ASM>
	VGA_write_char_ASM(64,2, ' ');
     d70:	e3a00040 	mov	r0, #64	; 0x40
     d74:	e3a01002 	mov	r1, #2
     d78:	e3a02020 	mov	r2, #32
     d7c:	eb0003b2 	bl	1c4c <VGA_write_char_ASM>
	VGA_write_char_ASM(65,2, 'D');
     d80:	e3a00041 	mov	r0, #65	; 0x41
     d84:	e3a01002 	mov	r1, #2
     d88:	e3a02044 	mov	r2, #68	; 0x44
     d8c:	eb0003ae 	bl	1c4c <VGA_write_char_ASM>
	VGA_write_char_ASM(66,2, 'E');
     d90:	e3a00042 	mov	r0, #66	; 0x42
     d94:	e3a01002 	mov	r1, #2
     d98:	e3a02045 	mov	r2, #69	; 0x45
     d9c:	eb0003aa 	bl	1c4c <VGA_write_char_ASM>
	VGA_write_char_ASM(67,2, 'C');
     da0:	e3a00043 	mov	r0, #67	; 0x43
     da4:	e3a01002 	mov	r1, #2
     da8:	e3a02043 	mov	r2, #67	; 0x43
     dac:	eb0003a6 	bl	1c4c <VGA_write_char_ASM>
	VGA_write_char_ASM(68,2, 'R');
     db0:	e3a00044 	mov	r0, #68	; 0x44
     db4:	e3a01002 	mov	r1, #2
     db8:	e3a02052 	mov	r2, #82	; 0x52
     dbc:	eb0003a2 	bl	1c4c <VGA_write_char_ASM>
	VGA_write_char_ASM(69,2, 'E');
     dc0:	e3a00045 	mov	r0, #69	; 0x45
     dc4:	e3a01002 	mov	r1, #2
     dc8:	e3a02045 	mov	r2, #69	; 0x45
     dcc:	eb00039e 	bl	1c4c <VGA_write_char_ASM>
	VGA_write_char_ASM(70,2, 'A');
     dd0:	e3a00046 	mov	r0, #70	; 0x46
     dd4:	e3a01002 	mov	r1, #2
     dd8:	e3a02041 	mov	r2, #65	; 0x41
     ddc:	eb00039a 	bl	1c4c <VGA_write_char_ASM>
	VGA_write_char_ASM(71,2, 'S');
     de0:	e3a00047 	mov	r0, #71	; 0x47
     de4:	e3a01002 	mov	r1, #2
     de8:	e3a02053 	mov	r2, #83	; 0x53
     dec:	eb000396 	bl	1c4c <VGA_write_char_ASM>
	VGA_write_char_ASM(72,2, 'E');
     df0:	e3a00048 	mov	r0, #72	; 0x48
     df4:	e3a01002 	mov	r1, #2
     df8:	e3a02045 	mov	r2, #69	; 0x45
     dfc:	eb000392 	bl	1c4c <VGA_write_char_ASM>
	VGA_write_char_ASM(73,2, ' ');
     e00:	e3a00049 	mov	r0, #73	; 0x49
     e04:	e3a01002 	mov	r1, #2
     e08:	e3a02020 	mov	r2, #32
     e0c:	eb00038e 	bl	1c4c <VGA_write_char_ASM>
	VGA_write_char_ASM(74,2, 'O');
     e10:	e3a0004a 	mov	r0, #74	; 0x4a
     e14:	e3a01002 	mov	r1, #2
     e18:	e3a0204f 	mov	r2, #79	; 0x4f
     e1c:	eb00038a 	bl	1c4c <VGA_write_char_ASM>
	VGA_write_char_ASM(75,2, 'C');
     e20:	e3a0004b 	mov	r0, #75	; 0x4b
     e24:	e3a01002 	mov	r1, #2
     e28:	e3a02043 	mov	r2, #67	; 0x43
     e2c:	eb000386 	bl	1c4c <VGA_write_char_ASM>
	VGA_write_char_ASM(76,2, 'T');
     e30:	e3a0004c 	mov	r0, #76	; 0x4c
     e34:	e3a01002 	mov	r1, #2
     e38:	e3a02054 	mov	r2, #84	; 0x54
     e3c:	eb000382 	bl	1c4c <VGA_write_char_ASM>
	VGA_write_char_ASM(77,2, 'A');
     e40:	e3a0004d 	mov	r0, #77	; 0x4d
     e44:	e3a01002 	mov	r1, #2
     e48:	e3a02041 	mov	r2, #65	; 0x41
     e4c:	eb00037e 	bl	1c4c <VGA_write_char_ASM>
	VGA_write_char_ASM(78,2, 'V');
     e50:	e3a0004e 	mov	r0, #78	; 0x4e
     e54:	e3a01002 	mov	r1, #2
     e58:	e3a02056 	mov	r2, #86	; 0x56
     e5c:	eb00037a 	bl	1c4c <VGA_write_char_ASM>
	VGA_write_char_ASM(79,2, 'E');
     e60:	e3a0004f 	mov	r0, #79	; 0x4f
     e64:	e3a01002 	mov	r1, #2
     e68:	e3a02045 	mov	r2, #69	; 0x45
     e6c:	eb000376 	bl	1c4c <VGA_write_char_ASM>

	VGA_write_char_ASM(61,3, 'N');
     e70:	e3a0003d 	mov	r0, #61	; 0x3d
     e74:	e3a01003 	mov	r1, #3
     e78:	e3a0204e 	mov	r2, #78	; 0x4e
     e7c:	eb000372 	bl	1c4c <VGA_write_char_ASM>
	VGA_write_char_ASM(62,3, ' ');
     e80:	e3a0003e 	mov	r0, #62	; 0x3e
     e84:	e3a01003 	mov	r1, #3
     e88:	e3a02020 	mov	r2, #32
     e8c:	eb00036e 	bl	1c4c <VGA_write_char_ASM>
	VGA_write_char_ASM(63,3, '=');
     e90:	e3a0003f 	mov	r0, #63	; 0x3f
     e94:	e3a01003 	mov	r1, #3
     e98:	e3a0203d 	mov	r2, #61	; 0x3d
     e9c:	eb00036a 	bl	1c4c <VGA_write_char_ASM>
	VGA_write_char_ASM(64,3, ' ');
     ea0:	e3a00040 	mov	r0, #64	; 0x40
     ea4:	e3a01003 	mov	r1, #3
     ea8:	e3a02020 	mov	r2, #32
     eac:	eb000366 	bl	1c4c <VGA_write_char_ASM>
	VGA_write_char_ASM(65,3, 'I');
     eb0:	e3a00041 	mov	r0, #65	; 0x41
     eb4:	e3a01003 	mov	r1, #3
     eb8:	e3a02049 	mov	r2, #73	; 0x49
     ebc:	eb000362 	bl	1c4c <VGA_write_char_ASM>
	VGA_write_char_ASM(66,3, 'N');
     ec0:	e3a00042 	mov	r0, #66	; 0x42
     ec4:	e3a01003 	mov	r1, #3
     ec8:	e3a0204e 	mov	r2, #78	; 0x4e
     ecc:	eb00035e 	bl	1c4c <VGA_write_char_ASM>
	VGA_write_char_ASM(67,3, 'C');
     ed0:	e3a00043 	mov	r0, #67	; 0x43
     ed4:	e3a01003 	mov	r1, #3
     ed8:	e3a02043 	mov	r2, #67	; 0x43
     edc:	eb00035a 	bl	1c4c <VGA_write_char_ASM>
	VGA_write_char_ASM(68,3, 'R');
     ee0:	e3a00044 	mov	r0, #68	; 0x44
     ee4:	e3a01003 	mov	r1, #3
     ee8:	e3a02052 	mov	r2, #82	; 0x52
     eec:	eb000356 	bl	1c4c <VGA_write_char_ASM>
	VGA_write_char_ASM(69,3, 'E');
     ef0:	e3a00045 	mov	r0, #69	; 0x45
     ef4:	e3a01003 	mov	r1, #3
     ef8:	e3a02045 	mov	r2, #69	; 0x45
     efc:	eb000352 	bl	1c4c <VGA_write_char_ASM>
	VGA_write_char_ASM(70,3, 'A');
     f00:	e3a00046 	mov	r0, #70	; 0x46
     f04:	e3a01003 	mov	r1, #3
     f08:	e3a02041 	mov	r2, #65	; 0x41
     f0c:	eb00034e 	bl	1c4c <VGA_write_char_ASM>
	VGA_write_char_ASM(71,3, 'S');
     f10:	e3a00047 	mov	r0, #71	; 0x47
     f14:	e3a01003 	mov	r1, #3
     f18:	e3a02053 	mov	r2, #83	; 0x53
     f1c:	eb00034a 	bl	1c4c <VGA_write_char_ASM>
	VGA_write_char_ASM(72,3, 'E');
     f20:	e3a00048 	mov	r0, #72	; 0x48
     f24:	e3a01003 	mov	r1, #3
     f28:	e3a02045 	mov	r2, #69	; 0x45
     f2c:	eb000346 	bl	1c4c <VGA_write_char_ASM>
	VGA_write_char_ASM(73,3, ' ');
     f30:	e3a00049 	mov	r0, #73	; 0x49
     f34:	e3a01003 	mov	r1, #3
     f38:	e3a02020 	mov	r2, #32
     f3c:	eb000342 	bl	1c4c <VGA_write_char_ASM>
	VGA_write_char_ASM(74,3, 'O');
     f40:	e3a0004a 	mov	r0, #74	; 0x4a
     f44:	e3a01003 	mov	r1, #3
     f48:	e3a0204f 	mov	r2, #79	; 0x4f
     f4c:	eb00033e 	bl	1c4c <VGA_write_char_ASM>
	VGA_write_char_ASM(75,3, 'C');
     f50:	e3a0004b 	mov	r0, #75	; 0x4b
     f54:	e3a01003 	mov	r1, #3
     f58:	e3a02043 	mov	r2, #67	; 0x43
     f5c:	eb00033a 	bl	1c4c <VGA_write_char_ASM>
	VGA_write_char_ASM(76,3, 'T');
     f60:	e3a0004c 	mov	r0, #76	; 0x4c
     f64:	e3a01003 	mov	r1, #3
     f68:	e3a02054 	mov	r2, #84	; 0x54
     f6c:	eb000336 	bl	1c4c <VGA_write_char_ASM>
	VGA_write_char_ASM(77,3, 'A');
     f70:	e3a0004d 	mov	r0, #77	; 0x4d
     f74:	e3a01003 	mov	r1, #3
     f78:	e3a02041 	mov	r2, #65	; 0x41
     f7c:	eb000332 	bl	1c4c <VGA_write_char_ASM>
	VGA_write_char_ASM(78,3, 'V');
     f80:	e3a0004e 	mov	r0, #78	; 0x4e
     f84:	e3a01003 	mov	r1, #3
     f88:	e3a02056 	mov	r2, #86	; 0x56
     f8c:	eb00032e 	bl	1c4c <VGA_write_char_ASM>
	VGA_write_char_ASM(79,3, 'E');
     f90:	e3a0004f 	mov	r0, #79	; 0x4f
     f94:	e3a01003 	mov	r1, #3
     f98:	e3a02045 	mov	r2, #69	; 0x45
     f9c:	eb00032a 	bl	1c4c <VGA_write_char_ASM>
}
     fa0:	e8bd8800 	pop	{r11, pc}

00000fa4 <main>:

int main() {
     fa4:	e92d4800 	push	{r11, lr}
     fa8:	e28db004 	add	r11, sp, #4
     fac:	e24dd088 	sub	sp, sp, #136	; 0x88
	int samples = 0;
     fb0:	e3a03000 	mov	r3, #0
     fb4:	e50b3008 	str	r3, [r11, #-8]
	char* data;		// PS/2 port address
	float f = 0;	// frequency of note to play
     fb8:	e3a03000 	mov	r3, #0
     fbc:	e50b300c 	str	r3, [r11, #-12]

	int mode = 0;  			//mode of the synth (wave or piano keyboard)
     fc0:	e3a03000 	mov	r3, #0
     fc4:	e50b3010 	str	r3, [r11, #-16]
	int oldmode = 0;
     fc8:	e3a03000 	mov	r3, #0
     fcc:	e50b3014 	str	r3, [r11, #-20]	; 0xffffffec
	int octave = 3;			// current octave (range 1 to 5)
     fd0:	e3a03003 	mov	r3, #3
     fd4:	e50b3018 	str	r3, [r11, #-24]	; 0xffffffe8
	int oldoctave = 3;
     fd8:	e3a03003 	mov	r3, #3
     fdc:	e50b301c 	str	r3, [r11, #-28]	; 0xffffffe4
	float oldf = 0;			// old frequency (used for updating screen)
     fe0:	e3a03000 	mov	r3, #0
     fe4:	e50b3020 	str	r3, [r11, #-32]	; 0xffffffe0
	int oldv = 0; 			// old volume (used for updating screen)
     fe8:	e3a03000 	mov	r3, #0
     fec:	e50b3024 	str	r3, [r11, #-36]	; 0xffffffdc

	int bcode = 0;
     ff0:	e3a03000 	mov	r3, #0
     ff4:	e50b3028 	str	r3, [r11, #-40]	; 0xffffffd8

	int keystate[8] = {0, 0, 0, 0, 0, 0, 0, 0, 0};		// TODO: make sure we're still using this
     ff8:	e3a03000 	mov	r3, #0
     ffc:	e50b3068 	str	r3, [r11, #-104]	; 0xffffff98
    1000:	e3a03000 	mov	r3, #0
    1004:	e50b3064 	str	r3, [r11, #-100]	; 0xffffff9c
    1008:	e3a03000 	mov	r3, #0
    100c:	e50b3060 	str	r3, [r11, #-96]	; 0xffffffa0
    1010:	e3a03000 	mov	r3, #0
    1014:	e50b305c 	str	r3, [r11, #-92]	; 0xffffffa4
    1018:	e3a03000 	mov	r3, #0
    101c:	e50b3058 	str	r3, [r11, #-88]	; 0xffffffa8
    1020:	e3a03000 	mov	r3, #0
    1024:	e50b3054 	str	r3, [r11, #-84]	; 0xffffffac
    1028:	e3a03000 	mov	r3, #0
    102c:	e50b3050 	str	r3, [r11, #-80]	; 0xffffffb0
    1030:	e3a03000 	mov	r3, #0
    1034:	e50b304c 	str	r3, [r11, #-76]	; 0xffffffb4
	float freqs[8] = {130.813, 146.832, 164.814, 174.614, 195.998, 220.000, 246.942, 261.626};
    1038:	e303359c 	movw	r3, #13724	; 0x359c
    103c:	e3403000 	movt	r3, #0
    1040:	e24bc088 	sub	r12, r11, #136	; 0x88
    1044:	e1a0e003 	mov	lr, r3
    1048:	e8be000f 	ldm	lr!, {r0, r1, r2, r3}
    104c:	e8ac000f 	stmia	r12!, {r0, r1, r2, r3}
    1050:	e89e000f 	ldm	lr, {r0, r1, r2, r3}
    1054:	e88c000f 	stm	r12, {r0, r1, r2, r3}

	displayInstructions();	// display info to the user
    1058:	ebfffe5c 	bl	9d0 <displayInstructions>

	while(1) {
		int output = 0;
    105c:	e3a03000 	mov	r3, #0
    1060:	e50b3038 	str	r3, [r11, #-56]	; 0xffffffc8
		char input = *data;
    1064:	e51b303c 	ldr	r3, [r11, #-60]	; 0xffffffc4
    1068:	e5d33000 	ldrb	r3, [r3]
    106c:	e54b303d 	strb	r3, [r11, #-61]	; 0xffffffc3

		// move into piano mode if any of the slider switches are on
		if (read_slider_switches_ASM()) {
    1070:	eb0002d1 	bl	1bbc <read_slider_switches_ASM>
    1074:	e1a03000 	mov	r3, r0
    1078:	e3530000 	cmp	r3, #0
    107c:	0a000002 	beq	108c <main+0xe8>
			mode = 1;
    1080:	e3a03001 	mov	r3, #1
    1084:	e50b3010 	str	r3, [r11, #-16]
    1088:	ea000001 	b	1094 <main+0xf0>
		} else {
			mode = 0;
    108c:	e3a03000 	mov	r3, #0
    1090:	e50b3010 	str	r3, [r11, #-16]
		}

		// if the RVALID flag is 1, enter this if block
		if (read_ps2_data_ASM(data)) {
    1094:	e51b003c 	ldr	r0, [r11, #-60]	; 0xffffffc4
    1098:	eb00024e 	bl	19d8 <read_ps2_data_ASM>
    109c:	e1a03000 	mov	r3, r0
    10a0:	e3530000 	cmp	r3, #0
    10a4:	0a0000a3 	beq	1338 <main+0x394>
			if (bcode) {						// if the previous code was a break code, turn off the appropriate key in the array
    10a8:	e51b3028 	ldr	r3, [r11, #-40]	; 0xffffffd8
    10ac:	e3530000 	cmp	r3, #0
    10b0:	0a000031 	beq	117c <main+0x1d8>
				if (input == 0x1C) {
    10b4:	e55b303d 	ldrb	r3, [r11, #-61]	; 0xffffffc3
    10b8:	e353001c 	cmp	r3, #28
    10bc:	1a000002 	bne	10cc <main+0x128>
					keystate[0] = 0;
    10c0:	e3a03000 	mov	r3, #0
    10c4:	e50b3068 	str	r3, [r11, #-104]	; 0xffffff98
    10c8:	ea000028 	b	1170 <main+0x1cc>
				} else if (input == 0x1B) {
    10cc:	e55b303d 	ldrb	r3, [r11, #-61]	; 0xffffffc3
    10d0:	e353001b 	cmp	r3, #27
    10d4:	1a000002 	bne	10e4 <main+0x140>
					keystate[1] = 0;
    10d8:	e3a03000 	mov	r3, #0
    10dc:	e50b3064 	str	r3, [r11, #-100]	; 0xffffff9c
    10e0:	ea000022 	b	1170 <main+0x1cc>
				} else if (input == 0x23) {
    10e4:	e55b303d 	ldrb	r3, [r11, #-61]	; 0xffffffc3
    10e8:	e3530023 	cmp	r3, #35	; 0x23
    10ec:	1a000002 	bne	10fc <main+0x158>
					keystate[2] = 0;
    10f0:	e3a03000 	mov	r3, #0
    10f4:	e50b3060 	str	r3, [r11, #-96]	; 0xffffffa0
    10f8:	ea00001c 	b	1170 <main+0x1cc>
				} else if (input == 0x2B) {
    10fc:	e55b303d 	ldrb	r3, [r11, #-61]	; 0xffffffc3
    1100:	e353002b 	cmp	r3, #43	; 0x2b
    1104:	1a000002 	bne	1114 <main+0x170>
					keystate[3] = 0;
    1108:	e3a03000 	mov	r3, #0
    110c:	e50b305c 	str	r3, [r11, #-92]	; 0xffffffa4
    1110:	ea000016 	b	1170 <main+0x1cc>
				} else if (input == 0x3B) {
    1114:	e55b303d 	ldrb	r3, [r11, #-61]	; 0xffffffc3
    1118:	e353003b 	cmp	r3, #59	; 0x3b
    111c:	1a000002 	bne	112c <main+0x188>
					keystate[4] = 0;
    1120:	e3a03000 	mov	r3, #0
    1124:	e50b3058 	str	r3, [r11, #-88]	; 0xffffffa8
    1128:	ea000010 	b	1170 <main+0x1cc>
				} else if (input == 0x42) {
    112c:	e55b303d 	ldrb	r3, [r11, #-61]	; 0xffffffc3
    1130:	e3530042 	cmp	r3, #66	; 0x42
    1134:	1a000002 	bne	1144 <main+0x1a0>
					keystate[5] = 0;
    1138:	e3a03000 	mov	r3, #0
    113c:	e50b3054 	str	r3, [r11, #-84]	; 0xffffffac
    1140:	ea00000a 	b	1170 <main+0x1cc>
				} else if (input == 0x4B) {
    1144:	e55b303d 	ldrb	r3, [r11, #-61]	; 0xffffffc3
    1148:	e353004b 	cmp	r3, #75	; 0x4b
    114c:	1a000002 	bne	115c <main+0x1b8>
					keystate[6] = 0;
    1150:	e3a03000 	mov	r3, #0
    1154:	e50b3050 	str	r3, [r11, #-80]	; 0xffffffb0
    1158:	ea000004 	b	1170 <main+0x1cc>
				} else if (input == 0x4C) {
    115c:	e55b303d 	ldrb	r3, [r11, #-61]	; 0xffffffc3
    1160:	e353004c 	cmp	r3, #76	; 0x4c
    1164:	1a000001 	bne	1170 <main+0x1cc>
					keystate[7] = 0;
    1168:	e3a03000 	mov	r3, #0
    116c:	e50b304c 	str	r3, [r11, #-76]	; 0xffffffb4
				}
				bcode = 0;
    1170:	e3a03000 	mov	r3, #0
    1174:	e50b3028 	str	r3, [r11, #-40]	; 0xffffffd8
    1178:	ea00006e 	b	1338 <main+0x394>
			} else {
				if (input == 0xF0 || input == 0xFE || input == 0xFA) {		// if we see a break code, we'll head to a different section on the next loop
    117c:	e55b303d 	ldrb	r3, [r11, #-61]	; 0xffffffc3
    1180:	e35300f0 	cmp	r3, #240	; 0xf0
    1184:	0a000005 	beq	11a0 <main+0x1fc>
    1188:	e55b303d 	ldrb	r3, [r11, #-61]	; 0xffffffc3
    118c:	e35300fe 	cmp	r3, #254	; 0xfe
    1190:	0a000002 	beq	11a0 <main+0x1fc>
    1194:	e55b303d 	ldrb	r3, [r11, #-61]	; 0xffffffc3
    1198:	e35300fa 	cmp	r3, #250	; 0xfa
    119c:	1a000002 	bne	11ac <main+0x208>
					bcode = 1;
    11a0:	e3a03001 	mov	r3, #1
    11a4:	e50b3028 	str	r3, [r11, #-40]	; 0xffffffd8
    11a8:	ea000062 	b	1338 <main+0x394>
				} else if (input == 0x1C) {		// keyboard keypresses
    11ac:	e55b303d 	ldrb	r3, [r11, #-61]	; 0xffffffc3
    11b0:	e353001c 	cmp	r3, #28
    11b4:	1a000002 	bne	11c4 <main+0x220>
					keystate[0] = 1;
    11b8:	e3a03001 	mov	r3, #1
    11bc:	e50b3068 	str	r3, [r11, #-104]	; 0xffffff98
    11c0:	ea00005c 	b	1338 <main+0x394>
				} else if (input == 0x1B) {
    11c4:	e55b303d 	ldrb	r3, [r11, #-61]	; 0xffffffc3
    11c8:	e353001b 	cmp	r3, #27
    11cc:	1a000002 	bne	11dc <main+0x238>
					keystate[1] = 1;
    11d0:	e3a03001 	mov	r3, #1
    11d4:	e50b3064 	str	r3, [r11, #-100]	; 0xffffff9c
    11d8:	ea000056 	b	1338 <main+0x394>
				} else if (input == 0x23) {
    11dc:	e55b303d 	ldrb	r3, [r11, #-61]	; 0xffffffc3
    11e0:	e3530023 	cmp	r3, #35	; 0x23
    11e4:	1a000002 	bne	11f4 <main+0x250>
					keystate[2] = 1;
    11e8:	e3a03001 	mov	r3, #1
    11ec:	e50b3060 	str	r3, [r11, #-96]	; 0xffffffa0
    11f0:	ea000050 	b	1338 <main+0x394>
				} else if (input == 0x2B) {
    11f4:	e55b303d 	ldrb	r3, [r11, #-61]	; 0xffffffc3
    11f8:	e353002b 	cmp	r3, #43	; 0x2b
    11fc:	1a000002 	bne	120c <main+0x268>
					keystate[3] = 1;
    1200:	e3a03001 	mov	r3, #1
    1204:	e50b305c 	str	r3, [r11, #-92]	; 0xffffffa4
    1208:	ea00004a 	b	1338 <main+0x394>
				} else if (input == 0x3B) {
    120c:	e55b303d 	ldrb	r3, [r11, #-61]	; 0xffffffc3
    1210:	e353003b 	cmp	r3, #59	; 0x3b
    1214:	1a000002 	bne	1224 <main+0x280>
					keystate[4] = 1;
    1218:	e3a03001 	mov	r3, #1
    121c:	e50b3058 	str	r3, [r11, #-88]	; 0xffffffa8
    1220:	ea000044 	b	1338 <main+0x394>
				} else if (input == 0x42) {
    1224:	e55b303d 	ldrb	r3, [r11, #-61]	; 0xffffffc3
    1228:	e3530042 	cmp	r3, #66	; 0x42
    122c:	1a000002 	bne	123c <main+0x298>
					keystate[5] = 1;
    1230:	e3a03001 	mov	r3, #1
    1234:	e50b3054 	str	r3, [r11, #-84]	; 0xffffffac
    1238:	ea00003e 	b	1338 <main+0x394>
				} else if (input == 0x4B) {
    123c:	e55b303d 	ldrb	r3, [r11, #-61]	; 0xffffffc3
    1240:	e353004b 	cmp	r3, #75	; 0x4b
    1244:	1a000002 	bne	1254 <main+0x2b0>
					keystate[6] = 1;
    1248:	e3a03001 	mov	r3, #1
    124c:	e50b3050 	str	r3, [r11, #-80]	; 0xffffffb0
    1250:	ea000038 	b	1338 <main+0x394>
				} else if (input == 0x4C) {
    1254:	e55b303d 	ldrb	r3, [r11, #-61]	; 0xffffffc3
    1258:	e353004c 	cmp	r3, #76	; 0x4c
    125c:	1a000002 	bne	126c <main+0x2c8>
					keystate[7] = 1;
    1260:	e3a03001 	mov	r3, #1
    1264:	e50b304c 	str	r3, [r11, #-76]	; 0xffffffb4
    1268:	ea000032 	b	1338 <main+0x394>
				} else if (input == 0x2A && volume < 7) {	// volume adjustments
    126c:	e55b303d 	ldrb	r3, [r11, #-61]	; 0xffffffc3
    1270:	e353002a 	cmp	r3, #42	; 0x2a
    1274:	1a00000c 	bne	12ac <main+0x308>
    1278:	e3033620 	movw	r3, #13856	; 0x3620
    127c:	e3403000 	movt	r3, #0
    1280:	e5933000 	ldr	r3, [r3]
    1284:	e3530006 	cmp	r3, #6
    1288:	ca000007 	bgt	12ac <main+0x308>
					volume++;
    128c:	e3033620 	movw	r3, #13856	; 0x3620
    1290:	e3403000 	movt	r3, #0
    1294:	e5933000 	ldr	r3, [r3]
    1298:	e2832001 	add	r2, r3, #1
    129c:	e3033620 	movw	r3, #13856	; 0x3620
    12a0:	e3403000 	movt	r3, #0
    12a4:	e5832000 	str	r2, [r3]
    12a8:	ea000022 	b	1338 <main+0x394>
				} else if (input == 0x21 && volume > 0) {
    12ac:	e55b303d 	ldrb	r3, [r11, #-61]	; 0xffffffc3
    12b0:	e3530021 	cmp	r3, #33	; 0x21
    12b4:	1a00000c 	bne	12ec <main+0x348>
    12b8:	e3033620 	movw	r3, #13856	; 0x3620
    12bc:	e3403000 	movt	r3, #0
    12c0:	e5933000 	ldr	r3, [r3]
    12c4:	e3530000 	cmp	r3, #0
    12c8:	da000007 	ble	12ec <main+0x348>
					volume--;			
    12cc:	e3033620 	movw	r3, #13856	; 0x3620
    12d0:	e3403000 	movt	r3, #0
    12d4:	e5933000 	ldr	r3, [r3]
    12d8:	e2432001 	sub	r2, r3, #1
    12dc:	e3033620 	movw	r3, #13856	; 0x3620
    12e0:	e3403000 	movt	r3, #0
    12e4:	e5832000 	str	r2, [r3]
    12e8:	ea000012 	b	1338 <main+0x394>
				} else if (input ==  0x31 && octave < 5) {	// octave adjustments
    12ec:	e55b303d 	ldrb	r3, [r11, #-61]	; 0xffffffc3
    12f0:	e3530031 	cmp	r3, #49	; 0x31
    12f4:	1a000006 	bne	1314 <main+0x370>
    12f8:	e51b3018 	ldr	r3, [r11, #-24]	; 0xffffffe8
    12fc:	e3530004 	cmp	r3, #4
    1300:	ca000003 	bgt	1314 <main+0x370>
					octave++;
    1304:	e51b3018 	ldr	r3, [r11, #-24]	; 0xffffffe8
    1308:	e2833001 	add	r3, r3, #1
    130c:	e50b3018 	str	r3, [r11, #-24]	; 0xffffffe8
    1310:	ea000008 	b	1338 <main+0x394>
				} else if (input == 0x32 && octave > 1) {
    1314:	e55b303d 	ldrb	r3, [r11, #-61]	; 0xffffffc3
    1318:	e3530032 	cmp	r3, #50	; 0x32
    131c:	1a000005 	bne	1338 <main+0x394>
    1320:	e51b3018 	ldr	r3, [r11, #-24]	; 0xffffffe8
    1324:	e3530001 	cmp	r3, #1
    1328:	da000002 	ble	1338 <main+0x394>
					octave--;
    132c:	e51b3018 	ldr	r3, [r11, #-24]	; 0xffffffe8
    1330:	e2433001 	sub	r3, r3, #1
    1334:	e50b3018 	str	r3, [r11, #-24]	; 0xffffffe8
				}
			}
		}

		// count the number of keys that are pressed and add the corresponding frequencies together
		float total = 0;
    1338:	e3a03000 	mov	r3, #0
    133c:	e50b302c 	str	r3, [r11, #-44]	; 0xffffffd4
		int hits = 0;
    1340:	e3a03000 	mov	r3, #0
    1344:	e50b3030 	str	r3, [r11, #-48]	; 0xffffffd0
		int i;
		for (i = 0; i < 8; i++) {
    1348:	e3a03000 	mov	r3, #0
    134c:	e50b3034 	str	r3, [r11, #-52]	; 0xffffffcc
    1350:	ea00001a 	b	13c0 <main+0x41c>
			if (keystate[i]) {
    1354:	e51b2034 	ldr	r2, [r11, #-52]	; 0xffffffcc
    1358:	e3e03063 	mvn	r3, #99	; 0x63
    135c:	e1a02102 	lsl	r2, r2, #2
    1360:	e24b1004 	sub	r1, r11, #4
    1364:	e0812002 	add	r2, r1, r2
    1368:	e0823003 	add	r3, r2, r3
    136c:	e5933000 	ldr	r3, [r3]
    1370:	e3530000 	cmp	r3, #0
    1374:	0a00000e 	beq	13b4 <main+0x410>
				total = total + freqs[i];
    1378:	e51b2034 	ldr	r2, [r11, #-52]	; 0xffffffcc
    137c:	e3e03083 	mvn	r3, #131	; 0x83
    1380:	e1a02102 	lsl	r2, r2, #2
    1384:	e24b1004 	sub	r1, r11, #4
    1388:	e0812002 	add	r2, r1, r2
    138c:	e0823003 	add	r3, r2, r3
    1390:	e5933000 	ldr	r3, [r3]
    1394:	e51b002c 	ldr	r0, [r11, #-44]	; 0xffffffd4
    1398:	e1a01003 	mov	r1, r3
    139c:	eb0005b4 	bl	2a74 <__addsf3>
    13a0:	e1a03000 	mov	r3, r0
    13a4:	e50b302c 	str	r3, [r11, #-44]	; 0xffffffd4
				hits++;
    13a8:	e51b3030 	ldr	r3, [r11, #-48]	; 0xffffffd0
    13ac:	e2833001 	add	r3, r3, #1
    13b0:	e50b3030 	str	r3, [r11, #-48]	; 0xffffffd0

		// count the number of keys that are pressed and add the corresponding frequencies together
		float total = 0;
		int hits = 0;
		int i;
		for (i = 0; i < 8; i++) {
    13b4:	e51b3034 	ldr	r3, [r11, #-52]	; 0xffffffcc
    13b8:	e2833001 	add	r3, r3, #1
    13bc:	e50b3034 	str	r3, [r11, #-52]	; 0xffffffcc
    13c0:	e51b3034 	ldr	r3, [r11, #-52]	; 0xffffffcc
    13c4:	e3530007 	cmp	r3, #7
    13c8:	daffffe1 	ble	1354 <main+0x3b0>
				total = total + freqs[i];
				hits++;
			}
		}

		if (hits) {
    13cc:	e51b3030 	ldr	r3, [r11, #-48]	; 0xffffffd0
    13d0:	e3530000 	cmp	r3, #0
    13d4:	0a000008 	beq	13fc <main+0x458>
			// average the frequencies of all the key presses
			f = total / hits;
    13d8:	e51b0030 	ldr	r0, [r11, #-48]	; 0xffffffd0
    13dc:	eb000615 	bl	2c38 <__aeabi_i2f>
    13e0:	e1a03000 	mov	r3, r0
    13e4:	e51b002c 	ldr	r0, [r11, #-44]	; 0xffffffd4
    13e8:	e1a01003 	mov	r1, r3
    13ec:	eb0006ae 	bl	2eac <__aeabi_fdiv>
    13f0:	e1a03000 	mov	r3, r0
    13f4:	e50b300c 	str	r3, [r11, #-12]
    13f8:	ea000001 	b	1404 <main+0x460>
		} else {
			// all the keys are not pressed, no frequency
			f = 0;
    13fc:	e3a03000 	mov	r3, #0
    1400:	e50b300c 	str	r3, [r11, #-12]
		}

		// display update graphics on screen if frequency, volume, mode, or octave have changed
		if (oldf != f || oldv != volume || oldmode != mode || oldoctave != octave) {
    1404:	e51b0020 	ldr	r0, [r11, #-32]	; 0xffffffe0
    1408:	e51b100c 	ldr	r1, [r11, #-12]
    140c:	eb000725 	bl	30a8 <__aeabi_fcmpeq>
    1410:	e1a03000 	mov	r3, r0
    1414:	e3530000 	cmp	r3, #0
    1418:	0a00000d 	beq	1454 <main+0x4b0>
    141c:	e3033620 	movw	r3, #13856	; 0x3620
    1420:	e3403000 	movt	r3, #0
    1424:	e5933000 	ldr	r3, [r3]
    1428:	e51b2024 	ldr	r2, [r11, #-36]	; 0xffffffdc
    142c:	e1520003 	cmp	r2, r3
    1430:	1a000007 	bne	1454 <main+0x4b0>
    1434:	e51b2014 	ldr	r2, [r11, #-20]	; 0xffffffec
    1438:	e51b3010 	ldr	r3, [r11, #-16]
    143c:	e1520003 	cmp	r2, r3
    1440:	1a000003 	bne	1454 <main+0x4b0>
    1444:	e51b201c 	ldr	r2, [r11, #-28]	; 0xffffffe4
    1448:	e51b3018 	ldr	r3, [r11, #-24]	; 0xffffffe8
    144c:	e1520003 	cmp	r2, r3
    1450:	0a000017 	beq	14b4 <main+0x510>
			// update variables
			oldf = f;
    1454:	e51b300c 	ldr	r3, [r11, #-12]
    1458:	e50b3020 	str	r3, [r11, #-32]	; 0xffffffe0
			oldv = volume;
    145c:	e3033620 	movw	r3, #13856	; 0x3620
    1460:	e3403000 	movt	r3, #0
    1464:	e5933000 	ldr	r3, [r3]
    1468:	e50b3024 	str	r3, [r11, #-36]	; 0xffffffdc

			// depending on the mode, display the wave or the on-screen piano keyboard
			if (mode == 0){
    146c:	e51b3010 	ldr	r3, [r11, #-16]
    1470:	e3530000 	cmp	r3, #0
    1474:	1a000007 	bne	1498 <main+0x4f4>
				wave(f, volume, octave);
    1478:	e3033620 	movw	r3, #13856	; 0x3620
    147c:	e3403000 	movt	r3, #0
    1480:	e5933000 	ldr	r3, [r3]
    1484:	e51b000c 	ldr	r0, [r11, #-12]
    1488:	e1a01003 	mov	r1, r3
    148c:	e51b2018 	ldr	r2, [r11, #-24]	; 0xffffffe8
    1490:	ebfffcb4 	bl	768 <wave>
    1494:	ea000002 	b	14a4 <main+0x500>
			} else {
				piano(f, octave);
    1498:	e51b000c 	ldr	r0, [r11, #-12]
    149c:	e51b1018 	ldr	r1, [r11, #-24]	; 0xffffffe8
    14a0:	ebfffc5e 	bl	620 <piano>
			}
			
			// update remaining variables
			oldmode = mode;
    14a4:	e51b3010 	ldr	r3, [r11, #-16]
    14a8:	e50b3014 	str	r3, [r11, #-20]	; 0xffffffec
			oldoctave = octave;
    14ac:	e51b3018 	ldr	r3, [r11, #-24]	; 0xffffffe8
    14b0:	e50b301c 	str	r3, [r11, #-28]	; 0xffffffe4
		}

		// if frequency is 0, don't play anything
		if (f) {
    14b4:	e51b000c 	ldr	r0, [r11, #-12]
    14b8:	e3a01000 	mov	r1, #0
    14bc:	eb0006f9 	bl	30a8 <__aeabi_fcmpeq>
    14c0:	e1a03000 	mov	r3, r0
    14c4:	e3530000 	cmp	r3, #0
    14c8:	1a00001b 	bne	153c <main+0x598>
			// generate audio sample
			int endOfSignal = 48000 / f;
    14cc:	e3a00902 	mov	r0, #32768	; 0x8000
    14d0:	e344073b 	movt	r0, #18235	; 0x473b
    14d4:	e51b100c 	ldr	r1, [r11, #-12]
    14d8:	eb000673 	bl	2eac <__aeabi_fdiv>
    14dc:	e1a03000 	mov	r3, r0
    14e0:	e1a00003 	mov	r0, r3
    14e4:	eb00070d 	bl	3120 <__aeabi_f2iz>
    14e8:	e1a03000 	mov	r3, r0
    14ec:	e50b3044 	str	r3, [r11, #-68]	; 0xffffffbc
			while (samples < endOfSignal) {		// iterate one period
    14f0:	ea00000a 	b	1520 <main+0x57c>
				// send a value
				int s = signal(f, samples, octave);
    14f4:	e51b000c 	ldr	r0, [r11, #-12]
    14f8:	e51b1008 	ldr	r1, [r11, #-8]
    14fc:	e51b2018 	ldr	r2, [r11, #-24]	; 0xffffffe8
    1500:	ebfffb76 	bl	2e0 <signal>
    1504:	e50b0048 	str	r0, [r11, #-72]	; 0xffffffb8
				audio_write_data_ASM(s, s);								// send the signal to be outputted
    1508:	e51b0048 	ldr	r0, [r11, #-72]	; 0xffffffb8
    150c:	e51b1048 	ldr	r1, [r11, #-72]	; 0xffffffb8
    1510:	eb0000bf 	bl	1814 <audio_write_data_ASM>
																			// don't need to check if there's space because the 
				//if (audio_write_data_ASM(s, s)) {						// decide whether keeping or removing this if condition changes the tune
					samples++;	// increment number of samples sent
    1514:	e51b3008 	ldr	r3, [r11, #-8]
    1518:	e2833001 	add	r3, r3, #1
    151c:	e50b3008 	str	r3, [r11, #-8]

		// if frequency is 0, don't play anything
		if (f) {
			// generate audio sample
			int endOfSignal = 48000 / f;
			while (samples < endOfSignal) {		// iterate one period
    1520:	e51b2008 	ldr	r2, [r11, #-8]
    1524:	e51b3044 	ldr	r3, [r11, #-68]	; 0xffffffbc
    1528:	e1520003 	cmp	r2, r3
    152c:	bafffff0 	blt	14f4 <main+0x550>
																			// don't need to check if there's space because the 
				//if (audio_write_data_ASM(s, s)) {						// decide whether keeping or removing this if condition changes the tune
					samples++;	// increment number of samples sent
				//}
			}
			samples = 0;
    1530:	e3a03000 	mov	r3, #0
    1534:	e50b3008 	str	r3, [r11, #-8]
		}
	}
    1538:	eafffec7 	b	105c <main+0xb8>
    153c:	eafffec6 	b	105c <main+0xb8>

00001540 <HEX_clear_ASM>:
    1540:	e3a01000 	mov	r1, #0
    1544:	ea000004 	b	155c <WRITE>

00001548 <HEX_flood_ASM>:
    1548:	e3a0107f 	mov	r1, #127	; 0x7f
    154c:	ea000002 	b	155c <WRITE>

00001550 <HEX_write_ASM>:
    1550:	e59f2064 	ldr	r2, [pc, #100]	; 15bc <PATTERNS+0x14>
    1554:	e7d21001 	ldrb	r1, [r2, r1]
    1558:	eaffffff 	b	155c <WRITE>

0000155c <WRITE>:
    155c:	e92d0030 	push	{r4, r5}
    1560:	e59f2058 	ldr	r2, [pc, #88]	; 15c0 <PATTERNS+0x18>
    1564:	e3a03000 	mov	r3, #0
    1568:	e3e050ff 	mvn	r5, #255	; 0xff

0000156c <LOOP>:
    156c:	e3100001 	tst	r0, #1
    1570:	0a000003 	beq	1584 <CONTINUE>
    1574:	e5924000 	ldr	r4, [r2]
    1578:	e0044005 	and	r4, r4, r5
    157c:	e1844001 	orr	r4, r4, r1
    1580:	e5824000 	str	r4, [r2]

00001584 <CONTINUE>:
    1584:	e1a05c65 	ror	r5, r5, #24
    1588:	e1a01c61 	ror	r1, r1, #24
    158c:	e2833001 	add	r3, r3, #1
    1590:	e3530004 	cmp	r3, #4
    1594:	059f2028 	ldreq	r2, [pc, #40]	; 15c4 <PATTERNS+0x1c>
    1598:	e1b000a0 	lsrs	r0, r0, #1
    159c:	1afffff2 	bne	156c <LOOP>
    15a0:	e8bd0030 	pop	{r4, r5}
    15a4:	e12fff1e 	bx	lr

000015a8 <PATTERNS>:
    15a8:	4f5b063f 	.word	0x4f5b063f
    15ac:	077d6d66 	.word	0x077d6d66
    15b0:	7c776f7f 	.word	0x7c776f7f
    15b4:	71795e39 	.word	0x71795e39
    15b8:	000000ff 	.word	0x000000ff
    15bc:	000015a8 	.word	0x000015a8
    15c0:	ff200020 	.word	0xff200020
    15c4:	ff200030 	.word	0xff200030

000015c8 <HPS_TIM_config_ASM>:
    15c8:	e92d40f0 	push	{r4, r5, r6, r7, lr}
    15cc:	e3a01000 	mov	r1, #0
    15d0:	e3a02001 	mov	r2, #1
    15d4:	e5907000 	ldr	r7, [r0]
    15d8:	eaffffff 	b	15dc <LOOP>

000015dc <LOOP>:
    15dc:	e1170112 	tst	r7, r2, lsl r1
    15e0:	0a000000 	beq	15e8 <CONTINUE>
    15e4:	eb000004 	bl	15fc <CONFIG>

000015e8 <CONTINUE>:
    15e8:	e2811001 	add	r1, r1, #1
    15ec:	e3510004 	cmp	r1, #4
    15f0:	bafffff9 	blt	15dc <LOOP>

000015f4 <DONE>:
    15f4:	e8bd40f0 	pop	{r4, r5, r6, r7, lr}
    15f8:	e12fff1e 	bx	lr

000015fc <CONFIG>:
    15fc:	e52de004 	push	{lr}		; (str lr, [sp, #-4]!)
    1600:	e59f30e4 	ldr	r3, [pc, #228]	; 16ec <HPS_TIM_BASE+0x10>
    1604:	e7934101 	ldr	r4, [r3, r1, lsl #2]
    1608:	eb000005 	bl	1624 <DISABLE>
    160c:	eb000008 	bl	1634 <SET_LOAD_VAL>
    1610:	eb00000e 	bl	1650 <SET_LOAD_BIT>
    1614:	eb000013 	bl	1668 <SET_INT_BIT>
    1618:	eb000019 	bl	1684 <SET_EN_BIT>
    161c:	e49de004 	pop	{lr}		; (ldr lr, [sp], #4)
    1620:	e12fff1e 	bx	lr

00001624 <DISABLE>:
    1624:	e5945008 	ldr	r5, [r4, #8]
    1628:	e3c55001 	bic	r5, r5, #1
    162c:	e5845008 	str	r5, [r4, #8]
    1630:	e12fff1e 	bx	lr

00001634 <SET_LOAD_VAL>:
    1634:	e5905004 	ldr	r5, [r0, #4]
    1638:	e3a06019 	mov	r6, #25
    163c:	e0050695 	mul	r5, r5, r6
    1640:	e3510002 	cmp	r1, #2
    1644:	b1a05105 	lsllt	r5, r5, #2
    1648:	e5845000 	str	r5, [r4]
    164c:	e12fff1e 	bx	lr

00001650 <SET_LOAD_BIT>:
    1650:	e5945008 	ldr	r5, [r4, #8]
    1654:	e5906008 	ldr	r6, [r0, #8]
    1658:	e3c55002 	bic	r5, r5, #2
    165c:	e1855086 	orr	r5, r5, r6, lsl #1
    1660:	e5845008 	str	r5, [r4, #8]
    1664:	e12fff1e 	bx	lr

00001668 <SET_INT_BIT>:
    1668:	e5945008 	ldr	r5, [r4, #8]
    166c:	e590600c 	ldr	r6, [r0, #12]
    1670:	e2266001 	eor	r6, r6, #1
    1674:	e3c55004 	bic	r5, r5, #4
    1678:	e1855106 	orr	r5, r5, r6, lsl #2
    167c:	e5845008 	str	r5, [r4, #8]
    1680:	e12fff1e 	bx	lr

00001684 <SET_EN_BIT>:
    1684:	e5945008 	ldr	r5, [r4, #8]
    1688:	e5906010 	ldr	r6, [r0, #16]
    168c:	e3c55001 	bic	r5, r5, #1
    1690:	e1855006 	orr	r5, r5, r6
    1694:	e5845008 	str	r5, [r4, #8]
    1698:	e12fff1e 	bx	lr

0000169c <HPS_TIM_clear_INT_ASM>:
    169c:	e52de004 	push	{lr}		; (str lr, [sp, #-4]!)
    16a0:	e3a01000 	mov	r1, #0
    16a4:	e3a02001 	mov	r2, #1
    16a8:	eaffffff 	b	16ac <INT_LOOP>

000016ac <INT_LOOP>:
    16ac:	e1100112 	tst	r0, r2, lsl r1
    16b0:	0a000000 	beq	16b8 <INT_CONTINUE>
    16b4:	eb000004 	bl	16cc <CLEAR_IT>

000016b8 <INT_CONTINUE>:
    16b8:	e2811001 	add	r1, r1, #1
    16bc:	e3510004 	cmp	r1, #4
    16c0:	bafffff9 	blt	16ac <INT_LOOP>

000016c4 <INT_DONE>:
    16c4:	e49de004 	pop	{lr}		; (ldr lr, [sp], #4)
    16c8:	e12fff1e 	bx	lr

000016cc <CLEAR_IT>:
    16cc:	e59f3018 	ldr	r3, [pc, #24]	; 16ec <HPS_TIM_BASE+0x10>
    16d0:	e7933101 	ldr	r3, [r3, r1, lsl #2]
    16d4:	e593300c 	ldr	r3, [r3, #12]
    16d8:	e12fff1e 	bx	lr

000016dc <HPS_TIM_BASE>:
    16dc:	ffc08000 	.word	0xffc08000
    16e0:	ffc09000 	.word	0xffc09000
    16e4:	ffd00000 	.word	0xffd00000
    16e8:	ffd01000 	.word	0xffd01000
    16ec:	000016dc 	.word	0x000016dc

000016f0 <A9_PRIV_TIM_ISR>:
	.global FPGA_JP1_ISR
	.global FPGA_JP2_ISR
	.global FPGA_PS2_DUAL_ISR
	
A9_PRIV_TIM_ISR:
	BX LR
    16f0:	e12fff1e 	bx	lr

000016f4 <HPS_GPIO1_ISR>:
	
HPS_GPIO1_ISR:
	BX LR
    16f4:	e12fff1e 	bx	lr

000016f8 <HPS_TIM0_ISR>:
	
HPS_TIM0_ISR:
	BX LR
    16f8:	e12fff1e 	bx	lr

000016fc <HPS_TIM1_ISR>:
	
HPS_TIM1_ISR:
	BX LR
    16fc:	e12fff1e 	bx	lr

00001700 <HPS_TIM2_ISR>:
	
HPS_TIM2_ISR:
	BX LR
    1700:	e12fff1e 	bx	lr

00001704 <HPS_TIM3_ISR>:
	
HPS_TIM3_ISR:
	BX LR
    1704:	e12fff1e 	bx	lr

00001708 <FPGA_INTERVAL_TIM_ISR>:
	
FPGA_INTERVAL_TIM_ISR:
	BX LR
    1708:	e12fff1e 	bx	lr

0000170c <FPGA_PB_KEYS_ISR>:
	
FPGA_PB_KEYS_ISR:
	BX LR
    170c:	e12fff1e 	bx	lr

00001710 <FPGA_Audio_ISR>:
	
FPGA_Audio_ISR:
	BX LR
    1710:	e12fff1e 	bx	lr

00001714 <FPGA_PS2_ISR>:
	
FPGA_PS2_ISR:
	BX LR
    1714:	e12fff1e 	bx	lr

00001718 <FPGA_JTAG_ISR>:
	
FPGA_JTAG_ISR:
	BX LR
    1718:	e12fff1e 	bx	lr

0000171c <FPGA_IrDA_ISR>:
	
FPGA_IrDA_ISR:
	BX LR
    171c:	e12fff1e 	bx	lr

00001720 <FPGA_JP1_ISR>:
	
FPGA_JP1_ISR:
	BX LR
    1720:	e12fff1e 	bx	lr

00001724 <FPGA_JP2_ISR>:
	
FPGA_JP2_ISR:
	BX LR
    1724:	e12fff1e 	bx	lr

00001728 <FPGA_PS2_DUAL_ISR>:
	
FPGA_PS2_DUAL_ISR:
	BX LR
    1728:	e12fff1e 	bx	lr

0000172c <read_LEDs_ASM>:
    172c:	e59f1010 	ldr	r1, [pc, #16]	; 1744 <write_LEDs_ASM+0xc>
    1730:	e5910000 	ldr	r0, [r1]
    1734:	e12fff1e 	bx	lr

00001738 <write_LEDs_ASM>:
    1738:	e59f1004 	ldr	r1, [pc, #4]	; 1744 <write_LEDs_ASM+0xc>
    173c:	e5810000 	str	r0, [r1]
    1740:	e12fff1e 	bx	lr
    1744:	ff200000 	.word	0xff200000

00001748 <audio_read_data_ASM>:
    1748:	e52de004 	push	{lr}		; (str lr, [sp, #-4]!)
    174c:	e92d0003 	push	{r0, r1}
    1750:	eb000093 	bl	19a4 <audio_read_ralc_ASM>
    1754:	e3500000 	cmp	r0, #0
    1758:	08bd0003 	popeq	{r0, r1}
    175c:	049de004 	popeq	{lr}		; (ldreq lr, [sp], #4)
    1760:	03a00000 	moveq	r0, #0
    1764:	012fff1e 	bxeq	lr
    1768:	eb000092 	bl	19b8 <audio_read_rarc_ASM>
    176c:	e3500000 	cmp	r0, #0
    1770:	08bd0003 	popeq	{r0, r1}
    1774:	03a00000 	moveq	r0, #0
    1778:	012fff1e 	bxeq	lr
    177c:	e8bd0003 	pop	{r0, r1}
    1780:	e59f2240 	ldr	r2, [pc, #576]	; 19c8 <audio_read_rarc_ASM+0x10>
    1784:	e5922000 	ldr	r2, [r2]
    1788:	e5802000 	str	r2, [r0]
    178c:	e59f3238 	ldr	r3, [pc, #568]	; 19cc <audio_read_rarc_ASM+0x14>
    1790:	e5933000 	ldr	r3, [r3]
    1794:	e5813000 	str	r3, [r1]
    1798:	e3a00001 	mov	r0, #1

0000179c <audio_read_leftdata_ASM>:
    179c:	e52de004 	push	{lr}		; (str lr, [sp, #-4]!)
    17a0:	e52d0004 	push	{r0}		; (str r0, [sp, #-4]!)
    17a4:	eb00007e 	bl	19a4 <audio_read_ralc_ASM>
    17a8:	e3500000 	cmp	r0, #0
    17ac:	049d0004 	popeq	{r0}		; (ldreq r0, [sp], #4)
    17b0:	049de004 	popeq	{lr}		; (ldreq lr, [sp], #4)
    17b4:	03a00000 	moveq	r0, #0
    17b8:	012fff1e 	bxeq	lr
    17bc:	e49d0004 	pop	{r0}		; (ldr r0, [sp], #4)
    17c0:	e59f2200 	ldr	r2, [pc, #512]	; 19c8 <audio_read_rarc_ASM+0x10>
    17c4:	e5922000 	ldr	r2, [r2]
    17c8:	e5802000 	str	r2, [r0]
    17cc:	e3a00001 	mov	r0, #1
    17d0:	e49de004 	pop	{lr}		; (ldr lr, [sp], #4)
    17d4:	e12fff1e 	bx	lr

000017d8 <audio_read_rightdata_ASM>:
    17d8:	e52de004 	push	{lr}		; (str lr, [sp, #-4]!)
    17dc:	e52d0004 	push	{r0}		; (str r0, [sp, #-4]!)
    17e0:	eb000074 	bl	19b8 <audio_read_rarc_ASM>
    17e4:	e3500000 	cmp	r0, #0
    17e8:	049d0004 	popeq	{r0}		; (ldreq r0, [sp], #4)
    17ec:	049de004 	popeq	{lr}		; (ldreq lr, [sp], #4)
    17f0:	03a00000 	moveq	r0, #0
    17f4:	012fff1e 	bxeq	lr
    17f8:	e49d0004 	pop	{r0}		; (ldr r0, [sp], #4)
    17fc:	e59f21c8 	ldr	r2, [pc, #456]	; 19cc <audio_read_rarc_ASM+0x14>
    1800:	e5922000 	ldr	r2, [r2]
    1804:	e5802000 	str	r2, [r0]
    1808:	e3a00001 	mov	r0, #1
    180c:	e49de004 	pop	{lr}		; (ldr lr, [sp], #4)
    1810:	e12fff1e 	bx	lr

00001814 <audio_write_data_ASM>:
    1814:	e52de004 	push	{lr}		; (str lr, [sp, #-4]!)
    1818:	e92d0003 	push	{r0, r1}
    181c:	eb000056 	bl	197c <audio_read_wslc_ASM>
    1820:	e3500000 	cmp	r0, #0
    1824:	08bd0003 	popeq	{r0, r1}
    1828:	049de004 	popeq	{lr}		; (ldreq lr, [sp], #4)
    182c:	03a00000 	moveq	r0, #0
    1830:	012fff1e 	bxeq	lr
    1834:	eb000055 	bl	1990 <audio_read_wsrc_ASM>
    1838:	e3500000 	cmp	r0, #0
    183c:	08bd0003 	popeq	{r0, r1}
    1840:	049de004 	popeq	{lr}		; (ldreq lr, [sp], #4)
    1844:	03a00000 	moveq	r0, #0
    1848:	012fff1e 	bxeq	lr
    184c:	e8bd0003 	pop	{r0, r1}
    1850:	e59f2170 	ldr	r2, [pc, #368]	; 19c8 <audio_read_rarc_ASM+0x10>
    1854:	e5820000 	str	r0, [r2]
    1858:	e59f316c 	ldr	r3, [pc, #364]	; 19cc <audio_read_rarc_ASM+0x14>
    185c:	e5831000 	str	r1, [r3]
    1860:	e3a00001 	mov	r0, #1
    1864:	e49de004 	pop	{lr}		; (ldr lr, [sp], #4)
    1868:	e12fff1e 	bx	lr

0000186c <audio_write_leftdata_ASM>:
    186c:	e52de004 	push	{lr}		; (str lr, [sp, #-4]!)
    1870:	e52d0004 	push	{r0}		; (str r0, [sp, #-4]!)
    1874:	eb000040 	bl	197c <audio_read_wslc_ASM>
    1878:	e3500000 	cmp	r0, #0
    187c:	049d0004 	popeq	{r0}		; (ldreq r0, [sp], #4)
    1880:	049de004 	popeq	{lr}		; (ldreq lr, [sp], #4)
    1884:	03a00000 	moveq	r0, #0
    1888:	012fff1e 	bxeq	lr
    188c:	e49d0004 	pop	{r0}		; (ldr r0, [sp], #4)
    1890:	e59f2130 	ldr	r2, [pc, #304]	; 19c8 <audio_read_rarc_ASM+0x10>
    1894:	e5820000 	str	r0, [r2]
    1898:	e3a00001 	mov	r0, #1
    189c:	e49de004 	pop	{lr}		; (ldr lr, [sp], #4)
    18a0:	e12fff1e 	bx	lr

000018a4 <audio_write_rightdata_ASM>:
    18a4:	e52de004 	push	{lr}		; (str lr, [sp, #-4]!)
    18a8:	e52d0004 	push	{r0}		; (str r0, [sp, #-4]!)
    18ac:	eb000037 	bl	1990 <audio_read_wsrc_ASM>
    18b0:	e3500000 	cmp	r0, #0
    18b4:	049d0004 	popeq	{r0}		; (ldreq r0, [sp], #4)
    18b8:	049de004 	popeq	{lr}		; (ldreq lr, [sp], #4)
    18bc:	03a00000 	moveq	r0, #0
    18c0:	012fff1e 	bxeq	lr
    18c4:	e49d0004 	pop	{r0}		; (ldr r0, [sp], #4)
    18c8:	e59f20fc 	ldr	r2, [pc, #252]	; 19cc <audio_read_rarc_ASM+0x14>
    18cc:	e5820000 	str	r0, [r2]
    18d0:	e3a00001 	mov	r0, #1
    18d4:	e49de004 	pop	{lr}		; (ldr lr, [sp], #4)
    18d8:	e12fff1e 	bx	lr

000018dc <audio_enable_read_fifo_clear_ASM>:
    18dc:	e59f00ec 	ldr	r0, [pc, #236]	; 19d0 <audio_read_rarc_ASM+0x18>
    18e0:	e5901000 	ldr	r1, [r0]
    18e4:	e3811004 	orr	r1, r1, #4
    18e8:	e5801000 	str	r1, [r0]
    18ec:	e12fff1e 	bx	lr

000018f0 <audio_enable_write_fifo_clear_ASM>:
    18f0:	e59f00d8 	ldr	r0, [pc, #216]	; 19d0 <audio_read_rarc_ASM+0x18>
    18f4:	e5901000 	ldr	r1, [r0]
    18f8:	e3811008 	orr	r1, r1, #8
    18fc:	e5801000 	str	r1, [r0]
    1900:	e12fff1e 	bx	lr

00001904 <audio_disable_read_fifo_clear_ASM>:
    1904:	e59f00c4 	ldr	r0, [pc, #196]	; 19d0 <audio_read_rarc_ASM+0x18>
    1908:	e5901000 	ldr	r1, [r0]
    190c:	e3c11004 	bic	r1, r1, #4
    1910:	e5801000 	str	r1, [r0]
    1914:	e12fff1e 	bx	lr

00001918 <audio_disable_write_fifo_clear_ASM>:
    1918:	e59f00b0 	ldr	r0, [pc, #176]	; 19d0 <audio_read_rarc_ASM+0x18>
    191c:	e5901000 	ldr	r1, [r0]
    1920:	e3c11008 	bic	r1, r1, #8
    1924:	e5801000 	str	r1, [r0]
    1928:	e12fff1e 	bx	lr

0000192c <audio_enable_read_int_ASM>:
    192c:	e59f009c 	ldr	r0, [pc, #156]	; 19d0 <audio_read_rarc_ASM+0x18>
    1930:	e5901000 	ldr	r1, [r0]
    1934:	e3811001 	orr	r1, r1, #1
    1938:	e5801000 	str	r1, [r0]
    193c:	e12fff1e 	bx	lr

00001940 <audio_enable_write_int_ASM>:
    1940:	e59f0088 	ldr	r0, [pc, #136]	; 19d0 <audio_read_rarc_ASM+0x18>
    1944:	e5901000 	ldr	r1, [r0]
    1948:	e3811002 	orr	r1, r1, #2
    194c:	e5801000 	str	r1, [r0]
    1950:	e12fff1e 	bx	lr

00001954 <audio_disable_read_int_ASM>:
    1954:	e59f0074 	ldr	r0, [pc, #116]	; 19d0 <audio_read_rarc_ASM+0x18>
    1958:	e5901000 	ldr	r1, [r0]
    195c:	e3c11001 	bic	r1, r1, #1
    1960:	e5801000 	str	r1, [r0]
    1964:	e12fff1e 	bx	lr

00001968 <audio_disable_write_int_ASM>:
    1968:	e59f0060 	ldr	r0, [pc, #96]	; 19d0 <audio_read_rarc_ASM+0x18>
    196c:	e5901000 	ldr	r1, [r0]
    1970:	e3c11002 	bic	r1, r1, #2
    1974:	e5801000 	str	r1, [r0]
    1978:	e12fff1e 	bx	lr

0000197c <audio_read_wslc_ASM>:
    197c:	e59f0050 	ldr	r0, [pc, #80]	; 19d4 <audio_read_rarc_ASM+0x1c>
    1980:	e5900000 	ldr	r0, [r0]
    1984:	e1a00c20 	lsr	r0, r0, #24
    1988:	e20000ff 	and	r0, r0, #255	; 0xff
    198c:	e12fff1e 	bx	lr

00001990 <audio_read_wsrc_ASM>:
    1990:	e59f003c 	ldr	r0, [pc, #60]	; 19d4 <audio_read_rarc_ASM+0x1c>
    1994:	e5900000 	ldr	r0, [r0]
    1998:	e1a00820 	lsr	r0, r0, #16
    199c:	e20000ff 	and	r0, r0, #255	; 0xff
    19a0:	e12fff1e 	bx	lr

000019a4 <audio_read_ralc_ASM>:
    19a4:	e59f0028 	ldr	r0, [pc, #40]	; 19d4 <audio_read_rarc_ASM+0x1c>
    19a8:	e5900000 	ldr	r0, [r0]
    19ac:	e1a00420 	lsr	r0, r0, #8
    19b0:	e20000ff 	and	r0, r0, #255	; 0xff
    19b4:	e12fff1e 	bx	lr

000019b8 <audio_read_rarc_ASM>:
    19b8:	e59f0014 	ldr	r0, [pc, #20]	; 19d4 <audio_read_rarc_ASM+0x1c>
    19bc:	e5900000 	ldr	r0, [r0]
    19c0:	e20000ff 	and	r0, r0, #255	; 0xff
    19c4:	e12fff1e 	bx	lr
    19c8:	ff203048 	.word	0xff203048
    19cc:	ff20304c 	.word	0xff20304c
    19d0:	ff203040 	.word	0xff203040
    19d4:	ff203044 	.word	0xff203044

000019d8 <read_ps2_data_ASM>:
    19d8:	e59f114c 	ldr	r1, [pc, #332]	; 1b2c <ps2_fifo_ravail+0x4>
    19dc:	e5911000 	ldr	r1, [r1]
    19e0:	e3a02902 	mov	r2, #32768	; 0x8000
    19e4:	e1110002 	tst	r1, r2
    19e8:	03a00000 	moveq	r0, #0
    19ec:	012fff1e 	bxeq	lr
    19f0:	e20120ff 	and	r2, r1, #255	; 0xff
    19f4:	e5c02000 	strb	r2, [r0]
    19f8:	e59f2130 	ldr	r2, [pc, #304]	; 1b30 <ps2_fifo_ravail+0x8>
    19fc:	e0010002 	and	r0, r1, r2
    1a00:	e1a00820 	lsr	r0, r0, #16
    1a04:	e12fff1e 	bx	lr

00001a08 <enable_ps2_int_ASM>:
    1a08:	e59f011c 	ldr	r0, [pc, #284]	; 1b2c <ps2_fifo_ravail+0x4>
    1a0c:	e3a01001 	mov	r1, #1
    1a10:	e5c01004 	strb	r1, [r0, #4]
    1a14:	e12fff1e 	bx	lr

00001a18 <disable_ps2_int_ASM>:
    1a18:	e59f010c 	ldr	r0, [pc, #268]	; 1b2c <ps2_fifo_ravail+0x4>
    1a1c:	e3a01000 	mov	r1, #0
    1a20:	e5c01004 	strb	r1, [r0, #4]
    1a24:	e12fff1e 	bx	lr

00001a28 <ps2_fifo_data>:
	...

00001b28 <ps2_fifo_ravail>:
    1b28:	00000000 	.word	0x00000000
    1b2c:	ff200100 	.word	0xff200100
    1b30:	ffff0000 	.word	0xffff0000

00001b34 <read_PB_data_ASM>:
    1b34:	e59f1074 	ldr	r1, [pc, #116]	; 1bb0 <disable_PB_INT_ASM+0x14>
    1b38:	e5910000 	ldr	r0, [r1]
    1b3c:	e12fff1e 	bx	lr

00001b40 <PB_data_is_pressed_ASM>:
    1b40:	e59f1068 	ldr	r1, [pc, #104]	; 1bb0 <disable_PB_INT_ASM+0x14>
    1b44:	e5912000 	ldr	r2, [r1]
    1b48:	e0000002 	and	r0, r0, r2
    1b4c:	e3300000 	teq	r0, #0
    1b50:	13a00001 	movne	r0, #1
    1b54:	e12fff1e 	bx	lr

00001b58 <read_PB_edgecap_ASM>:
    1b58:	e59f1054 	ldr	r1, [pc, #84]	; 1bb4 <disable_PB_INT_ASM+0x18>
    1b5c:	e5910000 	ldr	r0, [r1]
    1b60:	e12fff1e 	bx	lr

00001b64 <PB_edgecap_is_pressed_ASM>:
    1b64:	e59f1048 	ldr	r1, [pc, #72]	; 1bb4 <disable_PB_INT_ASM+0x18>
    1b68:	e5912000 	ldr	r2, [r1]
    1b6c:	e0000002 	and	r0, r0, r2
    1b70:	e3300000 	teq	r0, #0
    1b74:	13a00001 	movne	r0, #1
    1b78:	e12fff1e 	bx	lr

00001b7c <PB_clear_edgecp_ASM>:
    1b7c:	e59f1030 	ldr	r1, [pc, #48]	; 1bb4 <disable_PB_INT_ASM+0x18>
    1b80:	e5810000 	str	r0, [r1]
    1b84:	e12fff1e 	bx	lr

00001b88 <enable_PB_INT_ASM>:
    1b88:	e59f1028 	ldr	r1, [pc, #40]	; 1bb8 <disable_PB_INT_ASM+0x1c>
    1b8c:	e5912000 	ldr	r2, [r1]
    1b90:	e1800002 	orr	r0, r0, r2
    1b94:	e5810000 	str	r0, [r1]
    1b98:	e12fff1e 	bx	lr

00001b9c <disable_PB_INT_ASM>:
    1b9c:	e59f1014 	ldr	r1, [pc, #20]	; 1bb8 <disable_PB_INT_ASM+0x1c>
    1ba0:	e5912000 	ldr	r2, [r1]
    1ba4:	e1c00002 	bic	r0, r0, r2
    1ba8:	e5810000 	str	r0, [r1]
    1bac:	e12fff1e 	bx	lr
    1bb0:	ff200050 	.word	0xff200050
    1bb4:	ff20005c 	.word	0xff20005c
    1bb8:	ff200058 	.word	0xff200058

00001bbc <read_slider_switches_ASM>:
    1bbc:	e59f1004 	ldr	r1, [pc, #4]	; 1bc8 <read_slider_switches_ASM+0xc>
    1bc0:	e5910000 	ldr	r0, [r1]
    1bc4:	e12fff1e 	bx	lr
    1bc8:	ff200040 	.word	0xff200040

00001bcc <VGA_clear_charbuff_ASM>:
    1bcc:	e92d0030 	push	{r4, r5}
    1bd0:	e3a02000 	mov	r2, #0
    1bd4:	e3a034c9 	mov	r3, #-922746880	; 0xc9000000
    1bd8:	e3a00000 	mov	r0, #0

00001bdc <CHAR_LOOPX>:
    1bdc:	e3a01000 	mov	r1, #0
    1be0:	e0834000 	add	r4, r3, r0

00001be4 <CHAR_LOOPY>:
    1be4:	e0845381 	add	r5, r4, r1, lsl #7
    1be8:	e5c52000 	strb	r2, [r5]
    1bec:	e2811001 	add	r1, r1, #1
    1bf0:	e351003c 	cmp	r1, #60	; 0x3c
    1bf4:	bafffffa 	blt	1be4 <CHAR_LOOPY>
    1bf8:	e2800001 	add	r0, r0, #1
    1bfc:	e3500050 	cmp	r0, #80	; 0x50
    1c00:	bafffff5 	blt	1bdc <CHAR_LOOPX>
    1c04:	e8bd0030 	pop	{r4, r5}
    1c08:	e12fff1e 	bx	lr

00001c0c <VGA_clear_pixelbuff_ASM>:
    1c0c:	e92d0030 	push	{r4, r5}
    1c10:	e3a02000 	mov	r2, #0
    1c14:	e3a03332 	mov	r3, #-939524096	; 0xc8000000
    1c18:	e3a00000 	mov	r0, #0

00001c1c <PIXEL_LOOPX>:
    1c1c:	e3a01000 	mov	r1, #0
    1c20:	e0834080 	add	r4, r3, r0, lsl #1

00001c24 <PIXEL_LOOPY>:
    1c24:	e0845501 	add	r5, r4, r1, lsl #10
    1c28:	e1c520b0 	strh	r2, [r5]
    1c2c:	e2811001 	add	r1, r1, #1
    1c30:	e35100f0 	cmp	r1, #240	; 0xf0
    1c34:	bafffffa 	blt	1c24 <PIXEL_LOOPY>
    1c38:	e2800001 	add	r0, r0, #1
    1c3c:	e3500d05 	cmp	r0, #320	; 0x140
    1c40:	bafffff5 	blt	1c1c <PIXEL_LOOPX>
    1c44:	e8bd0030 	pop	{r4, r5}
    1c48:	e12fff1e 	bx	lr

00001c4c <VGA_write_char_ASM>:
    1c4c:	e3500000 	cmp	r0, #0
    1c50:	b12fff1e 	bxlt	lr
    1c54:	e3510000 	cmp	r1, #0
    1c58:	b12fff1e 	bxlt	lr
    1c5c:	e350004f 	cmp	r0, #79	; 0x4f
    1c60:	c12fff1e 	bxgt	lr
    1c64:	e351003b 	cmp	r1, #59	; 0x3b
    1c68:	c12fff1e 	bxgt	lr
    1c6c:	e3a034c9 	mov	r3, #-922746880	; 0xc9000000
    1c70:	e0833000 	add	r3, r3, r0
    1c74:	e0833381 	add	r3, r3, r1, lsl #7
    1c78:	e5c32000 	strb	r2, [r3]
    1c7c:	e12fff1e 	bx	lr

00001c80 <VGA_write_byte_ASM>:
    1c80:	e3500000 	cmp	r0, #0
    1c84:	b12fff1e 	bxlt	lr
    1c88:	e3510000 	cmp	r1, #0
    1c8c:	b12fff1e 	bxlt	lr
    1c90:	e350004e 	cmp	r0, #78	; 0x4e
    1c94:	c12fff1e 	bxgt	lr
    1c98:	e351003b 	cmp	r1, #59	; 0x3b
    1c9c:	c12fff1e 	bxgt	lr
    1ca0:	e92d0030 	push	{r4, r5}
    1ca4:	e3a034c9 	mov	r3, #-922746880	; 0xc9000000
    1ca8:	e20250f0 	and	r5, r2, #240	; 0xf0
    1cac:	e1a05225 	lsr	r5, r5, #4
    1cb0:	e202400f 	and	r4, r2, #15
    1cb4:	e59f2068 	ldr	r2, [pc, #104]	; 1d24 <HEX_ASCII+0x10>
    1cb8:	e7d25005 	ldrb	r5, [r2, r5]
    1cbc:	e7d24004 	ldrb	r4, [r2, r4]
    1cc0:	e0833000 	add	r3, r3, r0
    1cc4:	e0833381 	add	r3, r3, r1, lsl #7
    1cc8:	e5c35000 	strb	r5, [r3]
    1ccc:	e2833001 	add	r3, r3, #1
    1cd0:	e5c34000 	strb	r4, [r3]
    1cd4:	e8bd0030 	pop	{r4, r5}
    1cd8:	e12fff1e 	bx	lr

00001cdc <VGA_draw_point_ASM>:
    1cdc:	e59f3044 	ldr	r3, [pc, #68]	; 1d28 <HEX_ASCII+0x14>
    1ce0:	e3500000 	cmp	r0, #0
    1ce4:	b12fff1e 	bxlt	lr
    1ce8:	e3510000 	cmp	r1, #0
    1cec:	b12fff1e 	bxlt	lr
    1cf0:	e1500003 	cmp	r0, r3
    1cf4:	c12fff1e 	bxgt	lr
    1cf8:	e35100ef 	cmp	r1, #239	; 0xef
    1cfc:	c12fff1e 	bxgt	lr
    1d00:	e3a03332 	mov	r3, #-939524096	; 0xc8000000
    1d04:	e0833080 	add	r3, r3, r0, lsl #1
    1d08:	e0833501 	add	r3, r3, r1, lsl #10
    1d0c:	e1c320b0 	strh	r2, [r3]
    1d10:	e12fff1e 	bx	lr

00001d14 <HEX_ASCII>:
    1d14:	33323130 	.word	0x33323130
    1d18:	37363534 	.word	0x37363534
    1d1c:	42413938 	.word	0x42413938
    1d20:	46454443 	.word	0x46454443
    1d24:	00001d14 	.word	0x00001d14
    1d28:	0000013f 	.word	0x0000013f

00001d2c <disable_A9_interrupts>:
#include "../inc/int_setup.h"

void disable_A9_interrupts() {
    1d2c:	e52db004 	push	{r11}		; (str r11, [sp, #-4]!)
    1d30:	e28db000 	add	r11, sp, #0
    1d34:	e24dd00c 	sub	sp, sp, #12
	int status = 0b11010011;
    1d38:	e3a030d3 	mov	r3, #211	; 0xd3
    1d3c:	e50b3008 	str	r3, [r11, #-8]
	asm("msr cpsr, %[ps]" : : [ps]"r"(status));
    1d40:	e51b3008 	ldr	r3, [r11, #-8]
    1d44:	e129f003 	msr	CPSR_fc, r3
}
    1d48:	e28bd000 	add	sp, r11, #0
    1d4c:	e8bd0800 	ldmfd	sp!, {r11}
    1d50:	e12fff1e 	bx	lr

00001d54 <enable_A9_interrupts>:

void enable_A9_interrupts() {
    1d54:	e52db004 	push	{r11}		; (str r11, [sp, #-4]!)
    1d58:	e28db000 	add	r11, sp, #0
    1d5c:	e24dd00c 	sub	sp, sp, #12
	int status = 0b01010011;
    1d60:	e3a03053 	mov	r3, #83	; 0x53
    1d64:	e50b3008 	str	r3, [r11, #-8]
	asm("msr cpsr, %[ps]" : : [ps]"r"(status));
    1d68:	e51b3008 	ldr	r3, [r11, #-8]
    1d6c:	e129f003 	msr	CPSR_fc, r3
}
    1d70:	e28bd000 	add	sp, r11, #0
    1d74:	e8bd0800 	ldmfd	sp!, {r11}
    1d78:	e12fff1e 	bx	lr

00001d7c <set_A9_IRQ_stack>:

void set_A9_IRQ_stack() {
    1d7c:	e52db004 	push	{r11}		; (str r11, [sp, #-4]!)
    1d80:	e28db000 	add	r11, sp, #0
    1d84:	e24dd00c 	sub	sp, sp, #12
	int stack, mode;
	stack = 0xFFFFFFFF - 7;
    1d88:	e3e03007 	mvn	r3, #7
    1d8c:	e50b3008 	str	r3, [r11, #-8]
	mode = 0b11010010;
    1d90:	e3a030d2 	mov	r3, #210	; 0xd2
    1d94:	e50b300c 	str	r3, [r11, #-12]
	asm("msr cpsr, %[ps]" : : [ps] "r" (mode));
    1d98:	e51b300c 	ldr	r3, [r11, #-12]
    1d9c:	e129f003 	msr	CPSR_fc, r3
	asm("mov sp, %[ps]" : : [ps] "r" (stack));
    1da0:	e51b3008 	ldr	r3, [r11, #-8]
    1da4:	e1a0d003 	mov	sp, r3
	
	mode = 0b11010011;
    1da8:	e3a030d3 	mov	r3, #211	; 0xd3
    1dac:	e50b300c 	str	r3, [r11, #-12]
	asm("msr cpsr, %[ps]" : : [ps] "r" (mode));
    1db0:	e51b300c 	ldr	r3, [r11, #-12]
    1db4:	e129f003 	msr	CPSR_fc, r3
}
    1db8:	e28bd000 	add	sp, r11, #0
    1dbc:	e8bd0800 	ldmfd	sp!, {r11}
    1dc0:	e12fff1e 	bx	lr

00001dc4 <config_interrupt>:

void config_interrupt(int ID, int CPU) {
    1dc4:	e52db004 	push	{r11}		; (str r11, [sp, #-4]!)
    1dc8:	e28db000 	add	r11, sp, #0
    1dcc:	e24dd01c 	sub	sp, sp, #28
    1dd0:	e50b0018 	str	r0, [r11, #-24]	; 0xffffffe8
    1dd4:	e50b101c 	str	r1, [r11, #-28]	; 0xffffffe4
	int reg_offset;
	int index;
	int value;
	int address;
	
	reg_offset = (ID>>3) & 0xFFFFFFFC;
    1dd8:	e51b3018 	ldr	r3, [r11, #-24]	; 0xffffffe8
    1ddc:	e1a031c3 	asr	r3, r3, #3
    1de0:	e3c33003 	bic	r3, r3, #3
    1de4:	e50b3008 	str	r3, [r11, #-8]
	index = ID & 0x1F;
    1de8:	e51b3018 	ldr	r3, [r11, #-24]	; 0xffffffe8
    1dec:	e203301f 	and	r3, r3, #31
    1df0:	e50b300c 	str	r3, [r11, #-12]
	value = 1<<index;
    1df4:	e3a02001 	mov	r2, #1
    1df8:	e51b300c 	ldr	r3, [r11, #-12]
    1dfc:	e1a03312 	lsl	r3, r2, r3
    1e00:	e50b3010 	str	r3, [r11, #-16]
	address = MPCORE_GIC_DIST + ICDISER + reg_offset;
    1e04:	e51b3008 	ldr	r3, [r11, #-8]
    1e08:	e2433b4b 	sub	r3, r3, #76800	; 0x12c00
    1e0c:	e2433c03 	sub	r3, r3, #768	; 0x300
    1e10:	e50b3014 	str	r3, [r11, #-20]	; 0xffffffec
	*(int *)address |= value;
    1e14:	e51b3014 	ldr	r3, [r11, #-20]	; 0xffffffec
    1e18:	e51b2014 	ldr	r2, [r11, #-20]	; 0xffffffec
    1e1c:	e5921000 	ldr	r1, [r2]
    1e20:	e51b2010 	ldr	r2, [r11, #-16]
    1e24:	e1812002 	orr	r2, r1, r2
    1e28:	e5832000 	str	r2, [r3]
	
	reg_offset = (ID & 0xFFFFFFFC);
    1e2c:	e51b3018 	ldr	r3, [r11, #-24]	; 0xffffffe8
    1e30:	e3c33003 	bic	r3, r3, #3
    1e34:	e50b3008 	str	r3, [r11, #-8]
	index = ID & 3;
    1e38:	e51b3018 	ldr	r3, [r11, #-24]	; 0xffffffe8
    1e3c:	e2033003 	and	r3, r3, #3
    1e40:	e50b300c 	str	r3, [r11, #-12]
	address = MPCORE_GIC_DIST + ICDIPTR + reg_offset + index;
    1e44:	e51b2008 	ldr	r2, [r11, #-8]
    1e48:	e51b300c 	ldr	r3, [r11, #-12]
    1e4c:	e0823003 	add	r3, r2, r3
    1e50:	e2433b4a 	sub	r3, r3, #75776	; 0x12800
    1e54:	e50b3014 	str	r3, [r11, #-20]	; 0xffffffec
	*(char *)address = (char)CPU;
    1e58:	e51b3014 	ldr	r3, [r11, #-20]	; 0xffffffec
    1e5c:	e51b201c 	ldr	r2, [r11, #-28]	; 0xffffffe4
    1e60:	e6ef2072 	uxtb	r2, r2
    1e64:	e5c32000 	strb	r2, [r3]
}
    1e68:	e28bd000 	add	sp, r11, #0
    1e6c:	e8bd0800 	ldmfd	sp!, {r11}
    1e70:	e12fff1e 	bx	lr

00001e74 <config_GIC>:

void config_GIC(int len, int* IDs) {
    1e74:	e92d4800 	push	{r11, lr}
    1e78:	e28db004 	add	r11, sp, #4
    1e7c:	e24dd010 	sub	sp, sp, #16
    1e80:	e50b0010 	str	r0, [r11, #-16]
    1e84:	e50b1014 	str	r1, [r11, #-20]	; 0xffffffec
	int i;
	for(i=0 ; i<len ; i++)
    1e88:	e3a03000 	mov	r3, #0
    1e8c:	e50b3008 	str	r3, [r11, #-8]
    1e90:	ea00000a 	b	1ec0 <config_GIC+0x4c>
		config_interrupt(IDs[i],1);
    1e94:	e51b3008 	ldr	r3, [r11, #-8]
    1e98:	e1a03103 	lsl	r3, r3, #2
    1e9c:	e51b2014 	ldr	r2, [r11, #-20]	; 0xffffffec
    1ea0:	e0823003 	add	r3, r2, r3
    1ea4:	e5933000 	ldr	r3, [r3]
    1ea8:	e1a00003 	mov	r0, r3
    1eac:	e3a01001 	mov	r1, #1
    1eb0:	ebffffc3 	bl	1dc4 <config_interrupt>
	*(char *)address = (char)CPU;
}

void config_GIC(int len, int* IDs) {
	int i;
	for(i=0 ; i<len ; i++)
    1eb4:	e51b3008 	ldr	r3, [r11, #-8]
    1eb8:	e2833001 	add	r3, r3, #1
    1ebc:	e50b3008 	str	r3, [r11, #-8]
    1ec0:	e51b2008 	ldr	r2, [r11, #-8]
    1ec4:	e51b3010 	ldr	r3, [r11, #-16]
    1ec8:	e1520003 	cmp	r2, r3
    1ecc:	bafffff0 	blt	1e94 <config_GIC+0x20>
		config_interrupt(IDs[i],1);
	*((int *) (MPCORE_GIC_CPUIF + ICCPMR)) = 0xFFFF;
    1ed0:	e30c3104 	movw	r3, #49412	; 0xc104
    1ed4:	e34f3ffe 	movt	r3, #65534	; 0xfffe
    1ed8:	e30f2fff 	movw	r2, #65535	; 0xffff
    1edc:	e5832000 	str	r2, [r3]
	*((int *) (MPCORE_GIC_CPUIF)) = 1;
    1ee0:	e3a03cc1 	mov	r3, #49408	; 0xc100
    1ee4:	e34f3ffe 	movt	r3, #65534	; 0xfffe
    1ee8:	e3a02001 	mov	r2, #1
    1eec:	e5832000 	str	r2, [r3]
	*((int *) (MPCORE_GIC_DIST)) = 1;
    1ef0:	e3a03a0d 	mov	r3, #53248	; 0xd000
    1ef4:	e34f3ffe 	movt	r3, #65534	; 0xfffe
    1ef8:	e3a02001 	mov	r2, #1
    1efc:	e5832000 	str	r2, [r3]
}
    1f00:	e24bd004 	sub	sp, r11, #4
    1f04:	e8bd8800 	pop	{r11, pc}

00001f08 <__cs3_isr_irq>:

void __attribute__ ((interrupt)) __cs3_isr_irq() {
    1f08:	e24ee004 	sub	lr, lr, #4
    1f0c:	e92d580f 	push	{r0, r1, r2, r3, r11, r12, lr}
    1f10:	e28db018 	add	r11, sp, #24
    1f14:	e24dd00c 	sub	sp, sp, #12
	int interrupt_ID = *((int *) (MPCORE_GIC_CPUIF + ICCIAR));
    1f18:	e30c310c 	movw	r3, #49420	; 0xc10c
    1f1c:	e34f3ffe 	movt	r3, #65534	; 0xfffe
    1f20:	e5933000 	ldr	r3, [r3]
    1f24:	e50b3020 	str	r3, [r11, #-32]	; 0xffffffe0
	
	switch(interrupt_ID) {
    1f28:	e51b3020 	ldr	r3, [r11, #-32]	; 0xffffffe0
    1f2c:	e3530053 	cmp	r3, #83	; 0x53
    1f30:	0a00003d 	beq	202c <__cs3_isr_irq+0x124>
    1f34:	e3530053 	cmp	r3, #83	; 0x53
    1f38:	ca000011 	bgt	1f84 <__cs3_isr_irq+0x7c>
    1f3c:	e353004e 	cmp	r3, #78	; 0x4e
    1f40:	0a000031 	beq	200c <__cs3_isr_irq+0x104>
    1f44:	e353004e 	cmp	r3, #78	; 0x4e
    1f48:	ca000006 	bgt	1f68 <__cs3_isr_irq+0x60>
    1f4c:	e3530048 	cmp	r3, #72	; 0x48
    1f50:	0a000029 	beq	1ffc <__cs3_isr_irq+0xf4>
    1f54:	e3530049 	cmp	r3, #73	; 0x49
    1f58:	0a000029 	beq	2004 <__cs3_isr_irq+0xfc>
    1f5c:	e353001d 	cmp	r3, #29
    1f60:	0a000019 	beq	1fcc <__cs3_isr_irq+0xc4>
    1f64:	ea000036 	b	2044 <__cs3_isr_irq+0x13c>
    1f68:	e3530050 	cmp	r3, #80	; 0x50
    1f6c:	0a00002a 	beq	201c <__cs3_isr_irq+0x114>
    1f70:	e3530050 	cmp	r3, #80	; 0x50
    1f74:	ba000026 	blt	2014 <__cs3_isr_irq+0x10c>
    1f78:	e3530051 	cmp	r3, #81	; 0x51
    1f7c:	0a000028 	beq	2024 <__cs3_isr_irq+0x11c>
    1f80:	ea00002f 	b	2044 <__cs3_isr_irq+0x13c>
    1f84:	e35300c7 	cmp	r3, #199	; 0xc7
    1f88:	0a000013 	beq	1fdc <__cs3_isr_irq+0xd4>
    1f8c:	e35300c7 	cmp	r3, #199	; 0xc7
    1f90:	ca000006 	bgt	1fb0 <__cs3_isr_irq+0xa8>
    1f94:	e3530059 	cmp	r3, #89	; 0x59
    1f98:	0a000027 	beq	203c <__cs3_isr_irq+0x134>
    1f9c:	e35300c5 	cmp	r3, #197	; 0xc5
    1fa0:	0a00000b 	beq	1fd4 <__cs3_isr_irq+0xcc>
    1fa4:	e3530054 	cmp	r3, #84	; 0x54
    1fa8:	0a000021 	beq	2034 <__cs3_isr_irq+0x12c>
    1fac:	ea000024 	b	2044 <__cs3_isr_irq+0x13c>
    1fb0:	e35300c9 	cmp	r3, #201	; 0xc9
    1fb4:	0a00000c 	beq	1fec <__cs3_isr_irq+0xe4>
    1fb8:	e35300c9 	cmp	r3, #201	; 0xc9
    1fbc:	ba000008 	blt	1fe4 <__cs3_isr_irq+0xdc>
    1fc0:	e35300ca 	cmp	r3, #202	; 0xca
    1fc4:	0a00000a 	beq	1ff4 <__cs3_isr_irq+0xec>
    1fc8:	ea00001d 	b	2044 <__cs3_isr_irq+0x13c>
		
		case 29:  A9_PRIV_TIM_ISR(); break;
    1fcc:	ebfffdc7 	bl	16f0 <A9_PRIV_TIM_ISR>
    1fd0:	ea00001c 	b	2048 <__cs3_isr_irq+0x140>
		case 197: HPS_GPIO1_ISR(); break;
    1fd4:	ebfffdc6 	bl	16f4 <HPS_GPIO1_ISR>
    1fd8:	ea00001a 	b	2048 <__cs3_isr_irq+0x140>
		case 199: HPS_TIM0_ISR(); break;
    1fdc:	ebfffdc5 	bl	16f8 <HPS_TIM0_ISR>
    1fe0:	ea000018 	b	2048 <__cs3_isr_irq+0x140>
		case 200: HPS_TIM1_ISR(); break;
    1fe4:	ebfffdc4 	bl	16fc <HPS_TIM1_ISR>
    1fe8:	ea000016 	b	2048 <__cs3_isr_irq+0x140>
		case 201: HPS_TIM2_ISR(); break;
    1fec:	ebfffdc3 	bl	1700 <HPS_TIM2_ISR>
    1ff0:	ea000014 	b	2048 <__cs3_isr_irq+0x140>
		case 202: HPS_TIM3_ISR(); break;
    1ff4:	ebfffdc2 	bl	1704 <HPS_TIM3_ISR>
    1ff8:	ea000012 	b	2048 <__cs3_isr_irq+0x140>
		case 72:  FPGA_INTERVAL_TIM_ISR(); break;
    1ffc:	ebfffdc1 	bl	1708 <FPGA_INTERVAL_TIM_ISR>
    2000:	ea000010 	b	2048 <__cs3_isr_irq+0x140>
		case 73:  FPGA_PB_KEYS_ISR(); break;
    2004:	ebfffdc0 	bl	170c <FPGA_PB_KEYS_ISR>
    2008:	ea00000e 	b	2048 <__cs3_isr_irq+0x140>
		case 78:  FPGA_Audio_ISR(); break;
    200c:	ebfffdbf 	bl	1710 <FPGA_Audio_ISR>
    2010:	ea00000c 	b	2048 <__cs3_isr_irq+0x140>
		case 79:  FPGA_PS2_ISR(); break;
    2014:	ebfffdbe 	bl	1714 <FPGA_PS2_ISR>
    2018:	ea00000a 	b	2048 <__cs3_isr_irq+0x140>
		case 80:  FPGA_JTAG_ISR(); break;
    201c:	ebfffdbd 	bl	1718 <FPGA_JTAG_ISR>
    2020:	ea000008 	b	2048 <__cs3_isr_irq+0x140>
		case 81:  FPGA_IrDA_ISR(); break;
    2024:	ebfffdbc 	bl	171c <FPGA_IrDA_ISR>
    2028:	ea000006 	b	2048 <__cs3_isr_irq+0x140>
		case 83:  FPGA_JP1_ISR(); break;
    202c:	ebfffdbb 	bl	1720 <FPGA_JP1_ISR>
    2030:	ea000004 	b	2048 <__cs3_isr_irq+0x140>
		case 84:  FPGA_JP2_ISR(); break;
    2034:	ebfffdba 	bl	1724 <FPGA_JP2_ISR>
    2038:	ea000002 	b	2048 <__cs3_isr_irq+0x140>
		case 89:  FPGA_PS2_DUAL_ISR(); break;
    203c:	ebfffdb9 	bl	1728 <FPGA_PS2_DUAL_ISR>
    2040:	ea000000 	b	2048 <__cs3_isr_irq+0x140>
	
		default: while(1); break;
    2044:	eafffffe 	b	2044 <__cs3_isr_irq+0x13c>
	}
	
	*((int *) (MPCORE_GIC_CPUIF + ICCEOIR)) = interrupt_ID;
    2048:	e30c3110 	movw	r3, #49424	; 0xc110
    204c:	e34f3ffe 	movt	r3, #65534	; 0xfffe
    2050:	e51b2020 	ldr	r2, [r11, #-32]	; 0xffffffe0
    2054:	e5832000 	str	r2, [r3]
}
    2058:	e24bd018 	sub	sp, r11, #24
    205c:	e8fd980f 	ldm	sp!, {r0, r1, r2, r3, r11, r12, pc}^

00002060 <__cs3_reset>:

void __attribute__ ((interrupt)) __cs3_reset (void) {
    2060:	e52db004 	push	{r11}		; (str r11, [sp, #-4]!)
    2064:	e28db000 	add	r11, sp, #0
	while(1);
    2068:	eafffffe 	b	2068 <__cs3_reset+0x8>

0000206c <__cs3_isr_undef>:
}

void __attribute__ ((interrupt)) __cs3_isr_undef (void) {
    206c:	e52db004 	push	{r11}		; (str r11, [sp, #-4]!)
    2070:	e28db000 	add	r11, sp, #0
	while(1);
    2074:	eafffffe 	b	2074 <__cs3_isr_undef+0x8>

00002078 <__cs3_isr_swi>:
}

void __attribute__ ((interrupt)) __cs3_isr_swi (void) {
    2078:	e52db004 	push	{r11}		; (str r11, [sp, #-4]!)
    207c:	e28db000 	add	r11, sp, #0
	while(1);
    2080:	eafffffe 	b	2080 <__cs3_isr_swi+0x8>

00002084 <__cs3_isr_pabort>:
}

void __attribute__ ((interrupt)) __cs3_isr_pabort (void) {
    2084:	e52db004 	push	{r11}		; (str r11, [sp, #-4]!)
    2088:	e28db000 	add	r11, sp, #0
	while(1);
    208c:	eafffffe 	b	208c <__cs3_isr_pabort+0x8>

00002090 <__cs3_isr_dabort>:
}

void __attribute__ ((interrupt)) __cs3_isr_dabort (void) {
    2090:	e52db004 	push	{r11}		; (str r11, [sp, #-4]!)
    2094:	e28db000 	add	r11, sp, #0
	while(1);
    2098:	eafffffe 	b	2098 <__cs3_isr_dabort+0x8>

0000209c <__cs3_isr_fiq>:
}

void __attribute__ ((interrupt)) __cs3_isr_fiq (void) {
    209c:	e52db004 	push	{r11}		; (str r11, [sp, #-4]!)
    20a0:	e28db000 	add	r11, sp, #0
	while(1);
    20a4:	eafffffe 	b	20a4 <__cs3_isr_fiq+0x8>

000020a8 <fix_bug>:
}

void fix_bug() {
    20a8:	e52db004 	push	{r11}		; (str r11, [sp, #-4]!)
    20ac:	e28db000 	add	r11, sp, #0
    20b0:	e24dd00c 	sub	sp, sp, #12
	volatile int * addr = (int *)0xFFFED198;
    20b4:	e30d3198 	movw	r3, #53656	; 0xd198
    20b8:	e34f3ffe 	movt	r3, #65534	; 0xfffe
    20bc:	e50b3008 	str	r3, [r11, #-8]
	*addr = 0x000C0000;
    20c0:	e51b3008 	ldr	r3, [r11, #-8]
    20c4:	e3a02703 	mov	r2, #786432	; 0xc0000
    20c8:	e5832000 	str	r2, [r3]
}
    20cc:	e28bd000 	add	sp, r11, #0
    20d0:	e8bd0800 	ldmfd	sp!, {r11}
    20d4:	e12fff1e 	bx	lr

000020d8 <int_setup>:

void int_setup(int len, int* IDs) {
    20d8:	e92d4800 	push	{r11, lr}
    20dc:	e28db004 	add	r11, sp, #4
    20e0:	e24dd008 	sub	sp, sp, #8
    20e4:	e50b0008 	str	r0, [r11, #-8]
    20e8:	e50b100c 	str	r1, [r11, #-12]
	disable_A9_interrupts();
    20ec:	ebffff0e 	bl	1d2c <disable_A9_interrupts>
	set_A9_IRQ_stack();
    20f0:	ebffff21 	bl	1d7c <set_A9_IRQ_stack>
	fix_bug();
    20f4:	ebffffeb 	bl	20a8 <fix_bug>
	config_GIC(len, IDs);
    20f8:	e51b0008 	ldr	r0, [r11, #-8]
    20fc:	e51b100c 	ldr	r1, [r11, #-12]
    2100:	ebffff5b 	bl	1e74 <config_GIC>
	enable_A9_interrupts();
    2104:	ebffff12 	bl	1d54 <enable_A9_interrupts>
}
    2108:	e24bd004 	sub	sp, r11, #4
    210c:	e8bd8800 	pop	{r11, pc}

00002110 <__aeabi_drsub>:
    2110:	e2211102 	eor	r1, r1, #-2147483648	; 0x80000000
    2114:	ea000000 	b	211c <__adddf3>

00002118 <__aeabi_dsub>:
    2118:	e2233102 	eor	r3, r3, #-2147483648	; 0x80000000

0000211c <__adddf3>:
    211c:	e92d4030 	push	{r4, r5, lr}
    2120:	e1a04081 	lsl	r4, r1, #1
    2124:	e1a05083 	lsl	r5, r3, #1
    2128:	e1340005 	teq	r4, r5
    212c:	01300002 	teqeq	r0, r2
    2130:	1194c000 	orrsne	r12, r4, r0
    2134:	1195c002 	orrsne	r12, r5, r2
    2138:	11f0cac4 	mvnsne	r12, r4, asr #21
    213c:	11f0cac5 	mvnsne	r12, r5, asr #21
    2140:	0a00008c 	beq	2378 <__adddf3+0x25c>
    2144:	e1a04aa4 	lsr	r4, r4, #21
    2148:	e0745aa5 	rsbs	r5, r4, r5, lsr #21
    214c:	b2655000 	rsblt	r5, r5, #0
    2150:	da000006 	ble	2170 <__adddf3+0x54>
    2154:	e0844005 	add	r4, r4, r5
    2158:	e0202002 	eor	r2, r0, r2
    215c:	e0213003 	eor	r3, r1, r3
    2160:	e0220000 	eor	r0, r2, r0
    2164:	e0231001 	eor	r1, r3, r1
    2168:	e0202002 	eor	r2, r0, r2
    216c:	e0213003 	eor	r3, r1, r3
    2170:	e3550036 	cmp	r5, #54	; 0x36
    2174:	88bd4030 	pophi	{r4, r5, lr}
    2178:	812fff1e 	bxhi	lr
    217c:	e3110102 	tst	r1, #-2147483648	; 0x80000000
    2180:	e1a01601 	lsl	r1, r1, #12
    2184:	e3a0c601 	mov	r12, #1048576	; 0x100000
    2188:	e18c1621 	orr	r1, r12, r1, lsr #12
    218c:	0a000001 	beq	2198 <__adddf3+0x7c>
    2190:	e2700000 	rsbs	r0, r0, #0
    2194:	e2e11000 	rsc	r1, r1, #0
    2198:	e3130102 	tst	r3, #-2147483648	; 0x80000000
    219c:	e1a03603 	lsl	r3, r3, #12
    21a0:	e18c3623 	orr	r3, r12, r3, lsr #12
    21a4:	0a000001 	beq	21b0 <__adddf3+0x94>
    21a8:	e2722000 	rsbs	r2, r2, #0
    21ac:	e2e33000 	rsc	r3, r3, #0
    21b0:	e1340005 	teq	r4, r5
    21b4:	0a000069 	beq	2360 <__adddf3+0x244>
    21b8:	e2444001 	sub	r4, r4, #1
    21bc:	e275e020 	rsbs	lr, r5, #32
    21c0:	ba000005 	blt	21dc <__adddf3+0xc0>
    21c4:	e1a0ce12 	lsl	r12, r2, lr
    21c8:	e0900532 	adds	r0, r0, r2, lsr r5
    21cc:	e2a11000 	adc	r1, r1, #0
    21d0:	e0900e13 	adds	r0, r0, r3, lsl lr
    21d4:	e0b11553 	adcs	r1, r1, r3, asr r5
    21d8:	ea000006 	b	21f8 <__adddf3+0xdc>
    21dc:	e2455020 	sub	r5, r5, #32
    21e0:	e28ee020 	add	lr, lr, #32
    21e4:	e3520001 	cmp	r2, #1
    21e8:	e1a0ce13 	lsl	r12, r3, lr
    21ec:	238cc002 	orrcs	r12, r12, #2
    21f0:	e0900553 	adds	r0, r0, r3, asr r5
    21f4:	e0b11fc3 	adcs	r1, r1, r3, asr #31
    21f8:	e2015102 	and	r5, r1, #-2147483648	; 0x80000000
    21fc:	5a000002 	bpl	220c <__adddf3+0xf0>
    2200:	e27cc000 	rsbs	r12, r12, #0
    2204:	e2f00000 	rscs	r0, r0, #0
    2208:	e2e11000 	rsc	r1, r1, #0
    220c:	e3510601 	cmp	r1, #1048576	; 0x100000
    2210:	3a00000f 	bcc	2254 <__adddf3+0x138>
    2214:	e3510602 	cmp	r1, #2097152	; 0x200000
    2218:	3a000006 	bcc	2238 <__adddf3+0x11c>
    221c:	e1b010a1 	lsrs	r1, r1, #1
    2220:	e1b00060 	rrxs	r0, r0
    2224:	e1a0c06c 	rrx	r12, r12
    2228:	e2844001 	add	r4, r4, #1
    222c:	e1a02a84 	lsl	r2, r4, #21
    2230:	e3720501 	cmn	r2, #4194304	; 0x400000
    2234:	2a00006b 	bcs	23e8 <__adddf3+0x2cc>
    2238:	e35c0102 	cmp	r12, #-2147483648	; 0x80000000
    223c:	01b0c0a0 	lsrseq	r12, r0, #1
    2240:	e2b00000 	adcs	r0, r0, #0
    2244:	e0a11a04 	adc	r1, r1, r4, lsl #20
    2248:	e1811005 	orr	r1, r1, r5
    224c:	e8bd4030 	pop	{r4, r5, lr}
    2250:	e12fff1e 	bx	lr
    2254:	e1b0c08c 	lsls	r12, r12, #1
    2258:	e0b00000 	adcs	r0, r0, r0
    225c:	e0a11001 	adc	r1, r1, r1
    2260:	e3110601 	tst	r1, #1048576	; 0x100000
    2264:	e2444001 	sub	r4, r4, #1
    2268:	1afffff2 	bne	2238 <__adddf3+0x11c>
    226c:	e3310000 	teq	r1, #0
    2270:	13a03014 	movne	r3, #20
    2274:	03a03034 	moveq	r3, #52	; 0x34
    2278:	01a01000 	moveq	r1, r0
    227c:	03a00000 	moveq	r0, #0
    2280:	e1a02001 	mov	r2, r1
    2284:	e3520801 	cmp	r2, #65536	; 0x10000
    2288:	21a02822 	lsrcs	r2, r2, #16
    228c:	22433010 	subcs	r3, r3, #16
    2290:	e3520c01 	cmp	r2, #256	; 0x100
    2294:	21a02422 	lsrcs	r2, r2, #8
    2298:	22433008 	subcs	r3, r3, #8
    229c:	e3520010 	cmp	r2, #16
    22a0:	21a02222 	lsrcs	r2, r2, #4
    22a4:	22433004 	subcs	r3, r3, #4
    22a8:	e3520004 	cmp	r2, #4
    22ac:	22433002 	subcs	r3, r3, #2
    22b0:	304330a2 	subcc	r3, r3, r2, lsr #1
    22b4:	e04331a2 	sub	r3, r3, r2, lsr #3
    22b8:	e2532020 	subs	r2, r3, #32
    22bc:	aa000007 	bge	22e0 <__adddf3+0x1c4>
    22c0:	e292200c 	adds	r2, r2, #12
    22c4:	da000004 	ble	22dc <__adddf3+0x1c0>
    22c8:	e282c014 	add	r12, r2, #20
    22cc:	e262200c 	rsb	r2, r2, #12
    22d0:	e1a00c11 	lsl	r0, r1, r12
    22d4:	e1a01231 	lsr	r1, r1, r2
    22d8:	ea000004 	b	22f0 <__adddf3+0x1d4>
    22dc:	e2822014 	add	r2, r2, #20
    22e0:	d262c020 	rsble	r12, r2, #32
    22e4:	e1a01211 	lsl	r1, r1, r2
    22e8:	d1811c30 	orrle	r1, r1, r0, lsr r12
    22ec:	d1a00210 	lslle	r0, r0, r2
    22f0:	e0544003 	subs	r4, r4, r3
    22f4:	a0811a04 	addge	r1, r1, r4, lsl #20
    22f8:	a1811005 	orrge	r1, r1, r5
    22fc:	a8bd4030 	popge	{r4, r5, lr}
    2300:	a12fff1e 	bxge	lr
    2304:	e1e04004 	mvn	r4, r4
    2308:	e254401f 	subs	r4, r4, #31
    230c:	aa00000f 	bge	2350 <__adddf3+0x234>
    2310:	e294400c 	adds	r4, r4, #12
    2314:	ca000006 	bgt	2334 <__adddf3+0x218>
    2318:	e2844014 	add	r4, r4, #20
    231c:	e2642020 	rsb	r2, r4, #32
    2320:	e1a00430 	lsr	r0, r0, r4
    2324:	e1800211 	orr	r0, r0, r1, lsl r2
    2328:	e1851431 	orr	r1, r5, r1, lsr r4
    232c:	e8bd4030 	pop	{r4, r5, lr}
    2330:	e12fff1e 	bx	lr
    2334:	e264400c 	rsb	r4, r4, #12
    2338:	e2642020 	rsb	r2, r4, #32
    233c:	e1a00230 	lsr	r0, r0, r2
    2340:	e1800411 	orr	r0, r0, r1, lsl r4
    2344:	e1a01005 	mov	r1, r5
    2348:	e8bd4030 	pop	{r4, r5, lr}
    234c:	e12fff1e 	bx	lr
    2350:	e1a00431 	lsr	r0, r1, r4
    2354:	e1a01005 	mov	r1, r5
    2358:	e8bd4030 	pop	{r4, r5, lr}
    235c:	e12fff1e 	bx	lr
    2360:	e3340000 	teq	r4, #0
    2364:	e2233601 	eor	r3, r3, #1048576	; 0x100000
    2368:	02211601 	eoreq	r1, r1, #1048576	; 0x100000
    236c:	02844001 	addeq	r4, r4, #1
    2370:	12455001 	subne	r5, r5, #1
    2374:	eaffff8f 	b	21b8 <__adddf3+0x9c>
    2378:	e1f0cac4 	mvns	r12, r4, asr #21
    237c:	11f0cac5 	mvnsne	r12, r5, asr #21
    2380:	0a00001d 	beq	23fc <__adddf3+0x2e0>
    2384:	e1340005 	teq	r4, r5
    2388:	01300002 	teqeq	r0, r2
    238c:	0a000004 	beq	23a4 <__adddf3+0x288>
    2390:	e194c000 	orrs	r12, r4, r0
    2394:	01a01003 	moveq	r1, r3
    2398:	01a00002 	moveq	r0, r2
    239c:	e8bd4030 	pop	{r4, r5, lr}
    23a0:	e12fff1e 	bx	lr
    23a4:	e1310003 	teq	r1, r3
    23a8:	13a01000 	movne	r1, #0
    23ac:	13a00000 	movne	r0, #0
    23b0:	18bd4030 	popne	{r4, r5, lr}
    23b4:	112fff1e 	bxne	lr
    23b8:	e1b0caa4 	lsrs	r12, r4, #21
    23bc:	1a000004 	bne	23d4 <__adddf3+0x2b8>
    23c0:	e1b00080 	lsls	r0, r0, #1
    23c4:	e0b11001 	adcs	r1, r1, r1
    23c8:	23811102 	orrcs	r1, r1, #-2147483648	; 0x80000000
    23cc:	e8bd4030 	pop	{r4, r5, lr}
    23d0:	e12fff1e 	bx	lr
    23d4:	e2944501 	adds	r4, r4, #4194304	; 0x400000
    23d8:	32811601 	addcc	r1, r1, #1048576	; 0x100000
    23dc:	38bd4030 	popcc	{r4, r5, lr}
    23e0:	312fff1e 	bxcc	lr
    23e4:	e2015102 	and	r5, r1, #-2147483648	; 0x80000000
    23e8:	e385147f 	orr	r1, r5, #2130706432	; 0x7f000000
    23ec:	e381160f 	orr	r1, r1, #15728640	; 0xf00000
    23f0:	e3a00000 	mov	r0, #0
    23f4:	e8bd4030 	pop	{r4, r5, lr}
    23f8:	e12fff1e 	bx	lr
    23fc:	e1f0cac4 	mvns	r12, r4, asr #21
    2400:	11a01003 	movne	r1, r3
    2404:	11a00002 	movne	r0, r2
    2408:	01f0cac5 	mvnseq	r12, r5, asr #21
    240c:	11a03001 	movne	r3, r1
    2410:	11a02000 	movne	r2, r0
    2414:	e1904601 	orrs	r4, r0, r1, lsl #12
    2418:	01925603 	orrseq	r5, r2, r3, lsl #12
    241c:	01310003 	teqeq	r1, r3
    2420:	13811702 	orrne	r1, r1, #524288	; 0x80000
    2424:	e8bd4030 	pop	{r4, r5, lr}
    2428:	e12fff1e 	bx	lr

0000242c <__aeabi_ui2d>:
    242c:	e3300000 	teq	r0, #0
    2430:	03a01000 	moveq	r1, #0
    2434:	012fff1e 	bxeq	lr
    2438:	e92d4030 	push	{r4, r5, lr}
    243c:	e3a04b01 	mov	r4, #1024	; 0x400
    2440:	e2844032 	add	r4, r4, #50	; 0x32
    2444:	e3a05000 	mov	r5, #0
    2448:	e3a01000 	mov	r1, #0
    244c:	eaffff86 	b	226c <__adddf3+0x150>

00002450 <__aeabi_i2d>:
    2450:	e3300000 	teq	r0, #0
    2454:	03a01000 	moveq	r1, #0
    2458:	012fff1e 	bxeq	lr
    245c:	e92d4030 	push	{r4, r5, lr}
    2460:	e3a04b01 	mov	r4, #1024	; 0x400
    2464:	e2844032 	add	r4, r4, #50	; 0x32
    2468:	e2105102 	ands	r5, r0, #-2147483648	; 0x80000000
    246c:	42600000 	rsbmi	r0, r0, #0
    2470:	e3a01000 	mov	r1, #0
    2474:	eaffff7c 	b	226c <__adddf3+0x150>

00002478 <__aeabi_f2d>:
    2478:	e1b02080 	lsls	r2, r0, #1
    247c:	e1a011c2 	asr	r1, r2, #3
    2480:	e1a01061 	rrx	r1, r1
    2484:	e1a00e02 	lsl	r0, r2, #28
    2488:	121234ff 	andsne	r3, r2, #-16777216	; 0xff000000
    248c:	133304ff 	teqne	r3, #-16777216	; 0xff000000
    2490:	1221130e 	eorne	r1, r1, #939524096	; 0x38000000
    2494:	112fff1e 	bxne	lr
    2498:	e3320000 	teq	r2, #0
    249c:	133304ff 	teqne	r3, #-16777216	; 0xff000000
    24a0:	012fff1e 	bxeq	lr
    24a4:	e92d4030 	push	{r4, r5, lr}
    24a8:	e3a04d0e 	mov	r4, #896	; 0x380
    24ac:	e2015102 	and	r5, r1, #-2147483648	; 0x80000000
    24b0:	e3c11102 	bic	r1, r1, #-2147483648	; 0x80000000
    24b4:	eaffff6c 	b	226c <__adddf3+0x150>

000024b8 <__aeabi_ul2d>:
    24b8:	e1902001 	orrs	r2, r0, r1
    24bc:	012fff1e 	bxeq	lr
    24c0:	e92d4030 	push	{r4, r5, lr}
    24c4:	e3a05000 	mov	r5, #0
    24c8:	ea000006 	b	24e8 <__aeabi_l2d+0x1c>

000024cc <__aeabi_l2d>:
    24cc:	e1902001 	orrs	r2, r0, r1
    24d0:	012fff1e 	bxeq	lr
    24d4:	e92d4030 	push	{r4, r5, lr}
    24d8:	e2115102 	ands	r5, r1, #-2147483648	; 0x80000000
    24dc:	5a000001 	bpl	24e8 <__aeabi_l2d+0x1c>
    24e0:	e2700000 	rsbs	r0, r0, #0
    24e4:	e2e11000 	rsc	r1, r1, #0
    24e8:	e3a04b01 	mov	r4, #1024	; 0x400
    24ec:	e2844032 	add	r4, r4, #50	; 0x32
    24f0:	e1b0cb21 	lsrs	r12, r1, #22
    24f4:	0affff44 	beq	220c <__adddf3+0xf0>
    24f8:	e3a02003 	mov	r2, #3
    24fc:	e1b0c1ac 	lsrs	r12, r12, #3
    2500:	12822003 	addne	r2, r2, #3
    2504:	e1b0c1ac 	lsrs	r12, r12, #3
    2508:	12822003 	addne	r2, r2, #3
    250c:	e08221ac 	add	r2, r2, r12, lsr #3
    2510:	e2623020 	rsb	r3, r2, #32
    2514:	e1a0c310 	lsl	r12, r0, r3
    2518:	e1a00230 	lsr	r0, r0, r2
    251c:	e1800311 	orr	r0, r0, r1, lsl r3
    2520:	e1a01231 	lsr	r1, r1, r2
    2524:	e0844002 	add	r4, r4, r2
    2528:	eaffff37 	b	220c <__adddf3+0xf0>

0000252c <__aeabi_dmul>:
    252c:	e92d4070 	push	{r4, r5, r6, lr}
    2530:	e3a0c0ff 	mov	r12, #255	; 0xff
    2534:	e38ccc07 	orr	r12, r12, #1792	; 0x700
    2538:	e01c4a21 	ands	r4, r12, r1, lsr #20
    253c:	101c5a23 	andsne	r5, r12, r3, lsr #20
    2540:	1134000c 	teqne	r4, r12
    2544:	1135000c 	teqne	r5, r12
    2548:	0b000075 	bleq	2724 <__aeabi_dmul+0x1f8>
    254c:	e0844005 	add	r4, r4, r5
    2550:	e0216003 	eor	r6, r1, r3
    2554:	e1c11a8c 	bic	r1, r1, r12, lsl #21
    2558:	e1c33a8c 	bic	r3, r3, r12, lsl #21
    255c:	e1905601 	orrs	r5, r0, r1, lsl #12
    2560:	11925603 	orrsne	r5, r2, r3, lsl #12
    2564:	e3811601 	orr	r1, r1, #1048576	; 0x100000
    2568:	e3833601 	orr	r3, r3, #1048576	; 0x100000
    256c:	0a00001d 	beq	25e8 <__aeabi_dmul+0xbc>
    2570:	e08ec290 	umull	r12, lr, r0, r2
    2574:	e3a05000 	mov	r5, #0
    2578:	e0a5e291 	umlal	lr, r5, r1, r2
    257c:	e2062102 	and	r2, r6, #-2147483648	; 0x80000000
    2580:	e0a5e390 	umlal	lr, r5, r0, r3
    2584:	e3a06000 	mov	r6, #0
    2588:	e0a65391 	umlal	r5, r6, r1, r3
    258c:	e33c0000 	teq	r12, #0
    2590:	138ee001 	orrne	lr, lr, #1
    2594:	e24440ff 	sub	r4, r4, #255	; 0xff
    2598:	e3560c02 	cmp	r6, #512	; 0x200
    259c:	e2c44c03 	sbc	r4, r4, #768	; 0x300
    25a0:	2a000002 	bcs	25b0 <__aeabi_dmul+0x84>
    25a4:	e1b0e08e 	lsls	lr, lr, #1
    25a8:	e0b55005 	adcs	r5, r5, r5
    25ac:	e0a66006 	adc	r6, r6, r6
    25b0:	e1821586 	orr	r1, r2, r6, lsl #11
    25b4:	e1811aa5 	orr	r1, r1, r5, lsr #21
    25b8:	e1a00585 	lsl	r0, r5, #11
    25bc:	e1800aae 	orr	r0, r0, lr, lsr #21
    25c0:	e1a0e58e 	lsl	lr, lr, #11
    25c4:	e254c0fd 	subs	r12, r4, #253	; 0xfd
    25c8:	835c0c07 	cmphi	r12, #1792	; 0x700
    25cc:	8a000011 	bhi	2618 <__aeabi_dmul+0xec>
    25d0:	e35e0102 	cmp	lr, #-2147483648	; 0x80000000
    25d4:	01b0e0a0 	lsrseq	lr, r0, #1
    25d8:	e2b00000 	adcs	r0, r0, #0
    25dc:	e0a11a04 	adc	r1, r1, r4, lsl #20
    25e0:	e8bd4070 	pop	{r4, r5, r6, lr}
    25e4:	e12fff1e 	bx	lr
    25e8:	e2066102 	and	r6, r6, #-2147483648	; 0x80000000
    25ec:	e1861001 	orr	r1, r6, r1
    25f0:	e1800002 	orr	r0, r0, r2
    25f4:	e0211003 	eor	r1, r1, r3
    25f8:	e05440ac 	subs	r4, r4, r12, lsr #1
    25fc:	c074500c 	rsbsgt	r5, r4, r12
    2600:	c1811a04 	orrgt	r1, r1, r4, lsl #20
    2604:	c8bd4070 	popgt	{r4, r5, r6, lr}
    2608:	c12fff1e 	bxgt	lr
    260c:	e3811601 	orr	r1, r1, #1048576	; 0x100000
    2610:	e3a0e000 	mov	lr, #0
    2614:	e2544001 	subs	r4, r4, #1
    2618:	ca00005d 	bgt	2794 <__aeabi_dmul+0x268>
    261c:	e3740036 	cmn	r4, #54	; 0x36
    2620:	d3a00000 	movle	r0, #0
    2624:	d2011102 	andle	r1, r1, #-2147483648	; 0x80000000
    2628:	d8bd4070 	pople	{r4, r5, r6, lr}
    262c:	d12fff1e 	bxle	lr
    2630:	e2644000 	rsb	r4, r4, #0
    2634:	e2544020 	subs	r4, r4, #32
    2638:	aa00001a 	bge	26a8 <__aeabi_dmul+0x17c>
    263c:	e294400c 	adds	r4, r4, #12
    2640:	ca00000c 	bgt	2678 <__aeabi_dmul+0x14c>
    2644:	e2844014 	add	r4, r4, #20
    2648:	e2645020 	rsb	r5, r4, #32
    264c:	e1a03510 	lsl	r3, r0, r5
    2650:	e1a00430 	lsr	r0, r0, r4
    2654:	e1800511 	orr	r0, r0, r1, lsl r5
    2658:	e2012102 	and	r2, r1, #-2147483648	; 0x80000000
    265c:	e3c11102 	bic	r1, r1, #-2147483648	; 0x80000000
    2660:	e0900fa3 	adds	r0, r0, r3, lsr #31
    2664:	e0a21431 	adc	r1, r2, r1, lsr r4
    2668:	e19ee083 	orrs	lr, lr, r3, lsl #1
    266c:	01c00fa3 	biceq	r0, r0, r3, lsr #31
    2670:	e8bd4070 	pop	{r4, r5, r6, lr}
    2674:	e12fff1e 	bx	lr
    2678:	e264400c 	rsb	r4, r4, #12
    267c:	e2645020 	rsb	r5, r4, #32
    2680:	e1a03410 	lsl	r3, r0, r4
    2684:	e1a00530 	lsr	r0, r0, r5
    2688:	e1800411 	orr	r0, r0, r1, lsl r4
    268c:	e2011102 	and	r1, r1, #-2147483648	; 0x80000000
    2690:	e0900fa3 	adds	r0, r0, r3, lsr #31
    2694:	e2a11000 	adc	r1, r1, #0
    2698:	e19ee083 	orrs	lr, lr, r3, lsl #1
    269c:	01c00fa3 	biceq	r0, r0, r3, lsr #31
    26a0:	e8bd4070 	pop	{r4, r5, r6, lr}
    26a4:	e12fff1e 	bx	lr
    26a8:	e2645020 	rsb	r5, r4, #32
    26ac:	e18ee510 	orr	lr, lr, r0, lsl r5
    26b0:	e1a03430 	lsr	r3, r0, r4
    26b4:	e1833511 	orr	r3, r3, r1, lsl r5
    26b8:	e1a00431 	lsr	r0, r1, r4
    26bc:	e2011102 	and	r1, r1, #-2147483648	; 0x80000000
    26c0:	e1c00431 	bic	r0, r0, r1, lsr r4
    26c4:	e0800fa3 	add	r0, r0, r3, lsr #31
    26c8:	e19ee083 	orrs	lr, lr, r3, lsl #1
    26cc:	01c00fa3 	biceq	r0, r0, r3, lsr #31
    26d0:	e8bd4070 	pop	{r4, r5, r6, lr}
    26d4:	e12fff1e 	bx	lr
    26d8:	e3340000 	teq	r4, #0
    26dc:	1a000008 	bne	2704 <__aeabi_dmul+0x1d8>
    26e0:	e2016102 	and	r6, r1, #-2147483648	; 0x80000000
    26e4:	e1b00080 	lsls	r0, r0, #1
    26e8:	e0a11001 	adc	r1, r1, r1
    26ec:	e3110601 	tst	r1, #1048576	; 0x100000
    26f0:	02444001 	subeq	r4, r4, #1
    26f4:	0afffffa 	beq	26e4 <__aeabi_dmul+0x1b8>
    26f8:	e1811006 	orr	r1, r1, r6
    26fc:	e3350000 	teq	r5, #0
    2700:	112fff1e 	bxne	lr
    2704:	e2036102 	and	r6, r3, #-2147483648	; 0x80000000
    2708:	e1b02082 	lsls	r2, r2, #1
    270c:	e0a33003 	adc	r3, r3, r3
    2710:	e3130601 	tst	r3, #1048576	; 0x100000
    2714:	02455001 	subeq	r5, r5, #1
    2718:	0afffffa 	beq	2708 <__aeabi_dmul+0x1dc>
    271c:	e1833006 	orr	r3, r3, r6
    2720:	e12fff1e 	bx	lr
    2724:	e134000c 	teq	r4, r12
    2728:	e00c5a23 	and	r5, r12, r3, lsr #20
    272c:	1135000c 	teqne	r5, r12
    2730:	0a000007 	beq	2754 <__aeabi_dmul+0x228>
    2734:	e1906081 	orrs	r6, r0, r1, lsl #1
    2738:	11926083 	orrsne	r6, r2, r3, lsl #1
    273c:	1affffe5 	bne	26d8 <__aeabi_dmul+0x1ac>
    2740:	e0211003 	eor	r1, r1, r3
    2744:	e2011102 	and	r1, r1, #-2147483648	; 0x80000000
    2748:	e3a00000 	mov	r0, #0
    274c:	e8bd4070 	pop	{r4, r5, r6, lr}
    2750:	e12fff1e 	bx	lr
    2754:	e1906081 	orrs	r6, r0, r1, lsl #1
    2758:	01a00002 	moveq	r0, r2
    275c:	01a01003 	moveq	r1, r3
    2760:	11926083 	orrsne	r6, r2, r3, lsl #1
    2764:	0a000010 	beq	27ac <__aeabi_dmul+0x280>
    2768:	e134000c 	teq	r4, r12
    276c:	1a000001 	bne	2778 <__aeabi_dmul+0x24c>
    2770:	e1906601 	orrs	r6, r0, r1, lsl #12
    2774:	1a00000c 	bne	27ac <__aeabi_dmul+0x280>
    2778:	e135000c 	teq	r5, r12
    277c:	1a000003 	bne	2790 <__aeabi_dmul+0x264>
    2780:	e1926603 	orrs	r6, r2, r3, lsl #12
    2784:	11a00002 	movne	r0, r2
    2788:	11a01003 	movne	r1, r3
    278c:	1a000006 	bne	27ac <__aeabi_dmul+0x280>
    2790:	e0211003 	eor	r1, r1, r3
    2794:	e2011102 	and	r1, r1, #-2147483648	; 0x80000000
    2798:	e381147f 	orr	r1, r1, #2130706432	; 0x7f000000
    279c:	e381160f 	orr	r1, r1, #15728640	; 0xf00000
    27a0:	e3a00000 	mov	r0, #0
    27a4:	e8bd4070 	pop	{r4, r5, r6, lr}
    27a8:	e12fff1e 	bx	lr
    27ac:	e381147f 	orr	r1, r1, #2130706432	; 0x7f000000
    27b0:	e381173e 	orr	r1, r1, #16252928	; 0xf80000
    27b4:	e8bd4070 	pop	{r4, r5, r6, lr}
    27b8:	e12fff1e 	bx	lr

000027bc <__aeabi_ddiv>:
    27bc:	e92d4070 	push	{r4, r5, r6, lr}
    27c0:	e3a0c0ff 	mov	r12, #255	; 0xff
    27c4:	e38ccc07 	orr	r12, r12, #1792	; 0x700
    27c8:	e01c4a21 	ands	r4, r12, r1, lsr #20
    27cc:	101c5a23 	andsne	r5, r12, r3, lsr #20
    27d0:	1134000c 	teqne	r4, r12
    27d4:	1135000c 	teqne	r5, r12
    27d8:	0b00005e 	bleq	2958 <__aeabi_ddiv+0x19c>
    27dc:	e0444005 	sub	r4, r4, r5
    27e0:	e021e003 	eor	lr, r1, r3
    27e4:	e1925603 	orrs	r5, r2, r3, lsl #12
    27e8:	e1a01601 	lsl	r1, r1, #12
    27ec:	0a00004c 	beq	2924 <__aeabi_ddiv+0x168>
    27f0:	e1a03603 	lsl	r3, r3, #12
    27f4:	e3a05201 	mov	r5, #268435456	; 0x10000000
    27f8:	e1853223 	orr	r3, r5, r3, lsr #4
    27fc:	e1833c22 	orr	r3, r3, r2, lsr #24
    2800:	e1a02402 	lsl	r2, r2, #8
    2804:	e1855221 	orr	r5, r5, r1, lsr #4
    2808:	e1855c20 	orr	r5, r5, r0, lsr #24
    280c:	e1a06400 	lsl	r6, r0, #8
    2810:	e20e1102 	and	r1, lr, #-2147483648	; 0x80000000
    2814:	e1550003 	cmp	r5, r3
    2818:	01560002 	cmpeq	r6, r2
    281c:	e2a440fd 	adc	r4, r4, #253	; 0xfd
    2820:	e2844c03 	add	r4, r4, #768	; 0x300
    2824:	2a000001 	bcs	2830 <__aeabi_ddiv+0x74>
    2828:	e1b030a3 	lsrs	r3, r3, #1
    282c:	e1a02062 	rrx	r2, r2
    2830:	e0566002 	subs	r6, r6, r2
    2834:	e0c55003 	sbc	r5, r5, r3
    2838:	e1b030a3 	lsrs	r3, r3, #1
    283c:	e1a02062 	rrx	r2, r2
    2840:	e3a00601 	mov	r0, #1048576	; 0x100000
    2844:	e3a0c702 	mov	r12, #524288	; 0x80000
    2848:	e056e002 	subs	lr, r6, r2
    284c:	e0d5e003 	sbcs	lr, r5, r3
    2850:	20466002 	subcs	r6, r6, r2
    2854:	21a0500e 	movcs	r5, lr
    2858:	2180000c 	orrcs	r0, r0, r12
    285c:	e1b030a3 	lsrs	r3, r3, #1
    2860:	e1a02062 	rrx	r2, r2
    2864:	e056e002 	subs	lr, r6, r2
    2868:	e0d5e003 	sbcs	lr, r5, r3
    286c:	20466002 	subcs	r6, r6, r2
    2870:	21a0500e 	movcs	r5, lr
    2874:	218000ac 	orrcs	r0, r0, r12, lsr #1
    2878:	e1b030a3 	lsrs	r3, r3, #1
    287c:	e1a02062 	rrx	r2, r2
    2880:	e056e002 	subs	lr, r6, r2
    2884:	e0d5e003 	sbcs	lr, r5, r3
    2888:	20466002 	subcs	r6, r6, r2
    288c:	21a0500e 	movcs	r5, lr
    2890:	2180012c 	orrcs	r0, r0, r12, lsr #2
    2894:	e1b030a3 	lsrs	r3, r3, #1
    2898:	e1a02062 	rrx	r2, r2
    289c:	e056e002 	subs	lr, r6, r2
    28a0:	e0d5e003 	sbcs	lr, r5, r3
    28a4:	20466002 	subcs	r6, r6, r2
    28a8:	21a0500e 	movcs	r5, lr
    28ac:	218001ac 	orrcs	r0, r0, r12, lsr #3
    28b0:	e195e006 	orrs	lr, r5, r6
    28b4:	0a00000d 	beq	28f0 <__aeabi_ddiv+0x134>
    28b8:	e1a05205 	lsl	r5, r5, #4
    28bc:	e1855e26 	orr	r5, r5, r6, lsr #28
    28c0:	e1a06206 	lsl	r6, r6, #4
    28c4:	e1a03183 	lsl	r3, r3, #3
    28c8:	e1833ea2 	orr	r3, r3, r2, lsr #29
    28cc:	e1a02182 	lsl	r2, r2, #3
    28d0:	e1b0c22c 	lsrs	r12, r12, #4
    28d4:	1affffdb 	bne	2848 <__aeabi_ddiv+0x8c>
    28d8:	e3110601 	tst	r1, #1048576	; 0x100000
    28dc:	1a000006 	bne	28fc <__aeabi_ddiv+0x140>
    28e0:	e1811000 	orr	r1, r1, r0
    28e4:	e3a00000 	mov	r0, #0
    28e8:	e3a0c102 	mov	r12, #-2147483648	; 0x80000000
    28ec:	eaffffd5 	b	2848 <__aeabi_ddiv+0x8c>
    28f0:	e3110601 	tst	r1, #1048576	; 0x100000
    28f4:	01811000 	orreq	r1, r1, r0
    28f8:	03a00000 	moveq	r0, #0
    28fc:	e254c0fd 	subs	r12, r4, #253	; 0xfd
    2900:	835c0c07 	cmphi	r12, #1792	; 0x700
    2904:	8affff43 	bhi	2618 <__aeabi_dmul+0xec>
    2908:	e055c003 	subs	r12, r5, r3
    290c:	0056c002 	subseq	r12, r6, r2
    2910:	01b0c0a0 	lsrseq	r12, r0, #1
    2914:	e2b00000 	adcs	r0, r0, #0
    2918:	e0a11a04 	adc	r1, r1, r4, lsl #20
    291c:	e8bd4070 	pop	{r4, r5, r6, lr}
    2920:	e12fff1e 	bx	lr
    2924:	e20ee102 	and	lr, lr, #-2147483648	; 0x80000000
    2928:	e18e1621 	orr	r1, lr, r1, lsr #12
    292c:	e09440ac 	adds	r4, r4, r12, lsr #1
    2930:	c074500c 	rsbsgt	r5, r4, r12
    2934:	c1811a04 	orrgt	r1, r1, r4, lsl #20
    2938:	c8bd4070 	popgt	{r4, r5, r6, lr}
    293c:	c12fff1e 	bxgt	lr
    2940:	e3811601 	orr	r1, r1, #1048576	; 0x100000
    2944:	e3a0e000 	mov	lr, #0
    2948:	e2544001 	subs	r4, r4, #1
    294c:	eaffff31 	b	2618 <__aeabi_dmul+0xec>
    2950:	e185e006 	orr	lr, r5, r6
    2954:	eaffff2f 	b	2618 <__aeabi_dmul+0xec>
    2958:	e00c5a23 	and	r5, r12, r3, lsr #20
    295c:	e134000c 	teq	r4, r12
    2960:	0135000c 	teqeq	r5, r12
    2964:	0affff90 	beq	27ac <__aeabi_dmul+0x280>
    2968:	e134000c 	teq	r4, r12
    296c:	1a000006 	bne	298c <__aeabi_ddiv+0x1d0>
    2970:	e1904601 	orrs	r4, r0, r1, lsl #12
    2974:	1affff8c 	bne	27ac <__aeabi_dmul+0x280>
    2978:	e135000c 	teq	r5, r12
    297c:	1affff83 	bne	2790 <__aeabi_dmul+0x264>
    2980:	e1a00002 	mov	r0, r2
    2984:	e1a01003 	mov	r1, r3
    2988:	eaffff87 	b	27ac <__aeabi_dmul+0x280>
    298c:	e135000c 	teq	r5, r12
    2990:	1a000004 	bne	29a8 <__aeabi_ddiv+0x1ec>
    2994:	e1925603 	orrs	r5, r2, r3, lsl #12
    2998:	0affff68 	beq	2740 <__aeabi_dmul+0x214>
    299c:	e1a00002 	mov	r0, r2
    29a0:	e1a01003 	mov	r1, r3
    29a4:	eaffff80 	b	27ac <__aeabi_dmul+0x280>
    29a8:	e1906081 	orrs	r6, r0, r1, lsl #1
    29ac:	11926083 	orrsne	r6, r2, r3, lsl #1
    29b0:	1affff48 	bne	26d8 <__aeabi_dmul+0x1ac>
    29b4:	e1904081 	orrs	r4, r0, r1, lsl #1
    29b8:	1affff74 	bne	2790 <__aeabi_dmul+0x264>
    29bc:	e1925083 	orrs	r5, r2, r3, lsl #1
    29c0:	1affff5e 	bne	2740 <__aeabi_dmul+0x214>
    29c4:	eaffff78 	b	27ac <__aeabi_dmul+0x280>

000029c8 <__aeabi_d2f>:
    29c8:	e1a02081 	lsl	r2, r1, #1
    29cc:	e2523207 	subs	r3, r2, #1879048192	; 0x70000000
    29d0:	2253c602 	subscs	r12, r3, #2097152	; 0x200000
    29d4:	227cc57f 	rsbscs	r12, r12, #532676608	; 0x1fc00000
    29d8:	9a000006 	bls	29f8 <__aeabi_d2f+0x30>
    29dc:	e201c102 	and	r12, r1, #-2147483648	; 0x80000000
    29e0:	e1a02180 	lsl	r2, r0, #3
    29e4:	e18c0ea0 	orr	r0, r12, r0, lsr #29
    29e8:	e3520102 	cmp	r2, #-2147483648	; 0x80000000
    29ec:	e0a00103 	adc	r0, r0, r3, lsl #2
    29f0:	03c00001 	biceq	r0, r0, #1
    29f4:	e12fff1e 	bx	lr
    29f8:	e3110101 	tst	r1, #1073741824	; 0x40000000
    29fc:	1a00000f 	bne	2a40 <__aeabi_d2f+0x78>
    2a00:	e293262e 	adds	r2, r3, #48234496	; 0x2e00000
    2a04:	b2010102 	andlt	r0, r1, #-2147483648	; 0x80000000
    2a08:	b12fff1e 	bxlt	lr
    2a0c:	e3811601 	orr	r1, r1, #1048576	; 0x100000
    2a10:	e1a02aa2 	lsr	r2, r2, #21
    2a14:	e2622018 	rsb	r2, r2, #24
    2a18:	e262c020 	rsb	r12, r2, #32
    2a1c:	e1b03c10 	lsls	r3, r0, r12
    2a20:	e1a00230 	lsr	r0, r0, r2
    2a24:	13800001 	orrne	r0, r0, #1
    2a28:	e1a03581 	lsl	r3, r1, #11
    2a2c:	e1a035a3 	lsr	r3, r3, #11
    2a30:	e1800c13 	orr	r0, r0, r3, lsl r12
    2a34:	e1a03233 	lsr	r3, r3, r2
    2a38:	e1a03083 	lsl	r3, r3, #1
    2a3c:	eaffffe6 	b	29dc <__aeabi_d2f+0x14>
    2a40:	e1f03ac2 	mvns	r3, r2, asr #21
    2a44:	1a000003 	bne	2a58 <__aeabi_d2f+0x90>
    2a48:	e1903601 	orrs	r3, r0, r1, lsl #12
    2a4c:	13a0047f 	movne	r0, #2130706432	; 0x7f000000
    2a50:	13800503 	orrne	r0, r0, #12582912	; 0xc00000
    2a54:	112fff1e 	bxne	lr
    2a58:	e2010102 	and	r0, r1, #-2147483648	; 0x80000000
    2a5c:	e380047f 	orr	r0, r0, #2130706432	; 0x7f000000
    2a60:	e3800502 	orr	r0, r0, #8388608	; 0x800000
    2a64:	e12fff1e 	bx	lr

00002a68 <__aeabi_frsub>:
    2a68:	e2200102 	eor	r0, r0, #-2147483648	; 0x80000000
    2a6c:	ea000000 	b	2a74 <__addsf3>

00002a70 <__aeabi_fsub>:
    2a70:	e2211102 	eor	r1, r1, #-2147483648	; 0x80000000

00002a74 <__addsf3>:
    2a74:	e1b02080 	lsls	r2, r0, #1
    2a78:	11b03081 	lslsne	r3, r1, #1
    2a7c:	11320003 	teqne	r2, r3
    2a80:	11f0cc42 	mvnsne	r12, r2, asr #24
    2a84:	11f0cc43 	mvnsne	r12, r3, asr #24
    2a88:	0a000047 	beq	2bac <__addsf3+0x138>
    2a8c:	e1a02c22 	lsr	r2, r2, #24
    2a90:	e0723c23 	rsbs	r3, r2, r3, lsr #24
    2a94:	c0822003 	addgt	r2, r2, r3
    2a98:	c0201001 	eorgt	r1, r0, r1
    2a9c:	c0210000 	eorgt	r0, r1, r0
    2aa0:	c0201001 	eorgt	r1, r0, r1
    2aa4:	b2633000 	rsblt	r3, r3, #0
    2aa8:	e3530019 	cmp	r3, #25
    2aac:	812fff1e 	bxhi	lr
    2ab0:	e3100102 	tst	r0, #-2147483648	; 0x80000000
    2ab4:	e3800502 	orr	r0, r0, #8388608	; 0x800000
    2ab8:	e3c004ff 	bic	r0, r0, #-16777216	; 0xff000000
    2abc:	12600000 	rsbne	r0, r0, #0
    2ac0:	e3110102 	tst	r1, #-2147483648	; 0x80000000
    2ac4:	e3811502 	orr	r1, r1, #8388608	; 0x800000
    2ac8:	e3c114ff 	bic	r1, r1, #-16777216	; 0xff000000
    2acc:	12611000 	rsbne	r1, r1, #0
    2ad0:	e1320003 	teq	r2, r3
    2ad4:	0a00002e 	beq	2b94 <__addsf3+0x120>
    2ad8:	e2422001 	sub	r2, r2, #1
    2adc:	e0900351 	adds	r0, r0, r1, asr r3
    2ae0:	e2633020 	rsb	r3, r3, #32
    2ae4:	e1a01311 	lsl	r1, r1, r3
    2ae8:	e2003102 	and	r3, r0, #-2147483648	; 0x80000000
    2aec:	5a000001 	bpl	2af8 <__addsf3+0x84>
    2af0:	e2711000 	rsbs	r1, r1, #0
    2af4:	e2e00000 	rsc	r0, r0, #0
    2af8:	e3500502 	cmp	r0, #8388608	; 0x800000
    2afc:	3a00000b 	bcc	2b30 <__addsf3+0xbc>
    2b00:	e3500401 	cmp	r0, #16777216	; 0x1000000
    2b04:	3a000004 	bcc	2b1c <__addsf3+0xa8>
    2b08:	e1b000a0 	lsrs	r0, r0, #1
    2b0c:	e1a01061 	rrx	r1, r1
    2b10:	e2822001 	add	r2, r2, #1
    2b14:	e35200fe 	cmp	r2, #254	; 0xfe
    2b18:	2a000038 	bcs	2c00 <__addsf3+0x18c>
    2b1c:	e3510102 	cmp	r1, #-2147483648	; 0x80000000
    2b20:	e0a00b82 	adc	r0, r0, r2, lsl #23
    2b24:	03c00001 	biceq	r0, r0, #1
    2b28:	e1800003 	orr	r0, r0, r3
    2b2c:	e12fff1e 	bx	lr
    2b30:	e1b01081 	lsls	r1, r1, #1
    2b34:	e0a00000 	adc	r0, r0, r0
    2b38:	e3100502 	tst	r0, #8388608	; 0x800000
    2b3c:	e2422001 	sub	r2, r2, #1
    2b40:	1afffff5 	bne	2b1c <__addsf3+0xa8>
    2b44:	e1b0c620 	lsrs	r12, r0, #12
    2b48:	01a00600 	lsleq	r0, r0, #12
    2b4c:	0242200c 	subeq	r2, r2, #12
    2b50:	e31008ff 	tst	r0, #16711680	; 0xff0000
    2b54:	01a00400 	lsleq	r0, r0, #8
    2b58:	02422008 	subeq	r2, r2, #8
    2b5c:	e310060f 	tst	r0, #15728640	; 0xf00000
    2b60:	01a00200 	lsleq	r0, r0, #4
    2b64:	02422004 	subeq	r2, r2, #4
    2b68:	e3100503 	tst	r0, #12582912	; 0xc00000
    2b6c:	01a00100 	lsleq	r0, r0, #2
    2b70:	02422002 	subeq	r2, r2, #2
    2b74:	e3500502 	cmp	r0, #8388608	; 0x800000
    2b78:	31a00080 	lslcc	r0, r0, #1
    2b7c:	e2d22000 	sbcs	r2, r2, #0
    2b80:	a0800b82 	addge	r0, r0, r2, lsl #23
    2b84:	b2622000 	rsblt	r2, r2, #0
    2b88:	a1800003 	orrge	r0, r0, r3
    2b8c:	b1830230 	orrlt	r0, r3, r0, lsr r2
    2b90:	e12fff1e 	bx	lr
    2b94:	e3320000 	teq	r2, #0
    2b98:	e2211502 	eor	r1, r1, #8388608	; 0x800000
    2b9c:	02200502 	eoreq	r0, r0, #8388608	; 0x800000
    2ba0:	02822001 	addeq	r2, r2, #1
    2ba4:	12433001 	subne	r3, r3, #1
    2ba8:	eaffffca 	b	2ad8 <__addsf3+0x64>
    2bac:	e1a03081 	lsl	r3, r1, #1
    2bb0:	e1f0cc42 	mvns	r12, r2, asr #24
    2bb4:	11f0cc43 	mvnsne	r12, r3, asr #24
    2bb8:	0a000013 	beq	2c0c <__addsf3+0x198>
    2bbc:	e1320003 	teq	r2, r3
    2bc0:	0a000002 	beq	2bd0 <__addsf3+0x15c>
    2bc4:	e3320000 	teq	r2, #0
    2bc8:	01a00001 	moveq	r0, r1
    2bcc:	e12fff1e 	bx	lr
    2bd0:	e1300001 	teq	r0, r1
    2bd4:	13a00000 	movne	r0, #0
    2bd8:	112fff1e 	bxne	lr
    2bdc:	e31204ff 	tst	r2, #-16777216	; 0xff000000
    2be0:	1a000002 	bne	2bf0 <__addsf3+0x17c>
    2be4:	e1b00080 	lsls	r0, r0, #1
    2be8:	23800102 	orrcs	r0, r0, #-2147483648	; 0x80000000
    2bec:	e12fff1e 	bx	lr
    2bf0:	e2922402 	adds	r2, r2, #33554432	; 0x2000000
    2bf4:	32800502 	addcc	r0, r0, #8388608	; 0x800000
    2bf8:	312fff1e 	bxcc	lr
    2bfc:	e2003102 	and	r3, r0, #-2147483648	; 0x80000000
    2c00:	e383047f 	orr	r0, r3, #2130706432	; 0x7f000000
    2c04:	e3800502 	orr	r0, r0, #8388608	; 0x800000
    2c08:	e12fff1e 	bx	lr
    2c0c:	e1f02c42 	mvns	r2, r2, asr #24
    2c10:	11a00001 	movne	r0, r1
    2c14:	01f03c43 	mvnseq	r3, r3, asr #24
    2c18:	11a01000 	movne	r1, r0
    2c1c:	e1b02480 	lsls	r2, r0, #9
    2c20:	01b03481 	lslseq	r3, r1, #9
    2c24:	01300001 	teqeq	r0, r1
    2c28:	13800501 	orrne	r0, r0, #4194304	; 0x400000
    2c2c:	e12fff1e 	bx	lr

00002c30 <__aeabi_ui2f>:
    2c30:	e3a03000 	mov	r3, #0
    2c34:	ea000001 	b	2c40 <__aeabi_i2f+0x8>

00002c38 <__aeabi_i2f>:
    2c38:	e2103102 	ands	r3, r0, #-2147483648	; 0x80000000
    2c3c:	42600000 	rsbmi	r0, r0, #0
    2c40:	e1b0c000 	movs	r12, r0
    2c44:	012fff1e 	bxeq	lr
    2c48:	e383344b 	orr	r3, r3, #1258291200	; 0x4b000000
    2c4c:	e1a01000 	mov	r1, r0
    2c50:	e3a00000 	mov	r0, #0
    2c54:	ea00000f 	b	2c98 <__aeabi_l2f+0x30>

00002c58 <__aeabi_ul2f>:
    2c58:	e1902001 	orrs	r2, r0, r1
    2c5c:	012fff1e 	bxeq	lr
    2c60:	e3a03000 	mov	r3, #0
    2c64:	ea000005 	b	2c80 <__aeabi_l2f+0x18>

00002c68 <__aeabi_l2f>:
    2c68:	e1902001 	orrs	r2, r0, r1
    2c6c:	012fff1e 	bxeq	lr
    2c70:	e2113102 	ands	r3, r1, #-2147483648	; 0x80000000
    2c74:	5a000001 	bpl	2c80 <__aeabi_l2f+0x18>
    2c78:	e2700000 	rsbs	r0, r0, #0
    2c7c:	e2e11000 	rsc	r1, r1, #0
    2c80:	e1b0c001 	movs	r12, r1
    2c84:	01a0c000 	moveq	r12, r0
    2c88:	01a01000 	moveq	r1, r0
    2c8c:	03a00000 	moveq	r0, #0
    2c90:	e383345b 	orr	r3, r3, #1526726656	; 0x5b000000
    2c94:	02433201 	subeq	r3, r3, #268435456	; 0x10000000
    2c98:	e2433502 	sub	r3, r3, #8388608	; 0x800000
    2c9c:	e3a02017 	mov	r2, #23
    2ca0:	e35c0801 	cmp	r12, #65536	; 0x10000
    2ca4:	21a0c82c 	lsrcs	r12, r12, #16
    2ca8:	22422010 	subcs	r2, r2, #16
    2cac:	e35c0c01 	cmp	r12, #256	; 0x100
    2cb0:	21a0c42c 	lsrcs	r12, r12, #8
    2cb4:	22422008 	subcs	r2, r2, #8
    2cb8:	e35c0010 	cmp	r12, #16
    2cbc:	21a0c22c 	lsrcs	r12, r12, #4
    2cc0:	22422004 	subcs	r2, r2, #4
    2cc4:	e35c0004 	cmp	r12, #4
    2cc8:	22422002 	subcs	r2, r2, #2
    2ccc:	304220ac 	subcc	r2, r2, r12, lsr #1
    2cd0:	e05221ac 	subs	r2, r2, r12, lsr #3
    2cd4:	e0433b82 	sub	r3, r3, r2, lsl #23
    2cd8:	ba000006 	blt	2cf8 <__aeabi_l2f+0x90>
    2cdc:	e0833211 	add	r3, r3, r1, lsl r2
    2ce0:	e1a0c210 	lsl	r12, r0, r2
    2ce4:	e2622020 	rsb	r2, r2, #32
    2ce8:	e35c0102 	cmp	r12, #-2147483648	; 0x80000000
    2cec:	e0a30230 	adc	r0, r3, r0, lsr r2
    2cf0:	03c00001 	biceq	r0, r0, #1
    2cf4:	e12fff1e 	bx	lr
    2cf8:	e2822020 	add	r2, r2, #32
    2cfc:	e1a0c211 	lsl	r12, r1, r2
    2d00:	e2622020 	rsb	r2, r2, #32
    2d04:	e190008c 	orrs	r0, r0, r12, lsl #1
    2d08:	e0a30231 	adc	r0, r3, r1, lsr r2
    2d0c:	01c00fac 	biceq	r0, r0, r12, lsr #31
    2d10:	e12fff1e 	bx	lr

00002d14 <__aeabi_fmul>:
    2d14:	e3a0c0ff 	mov	r12, #255	; 0xff
    2d18:	e01c2ba0 	ands	r2, r12, r0, lsr #23
    2d1c:	101c3ba1 	andsne	r3, r12, r1, lsr #23
    2d20:	1132000c 	teqne	r2, r12
    2d24:	1133000c 	teqne	r3, r12
    2d28:	0a00003e 	beq	2e28 <__aeabi_fmul+0x114>
    2d2c:	e0822003 	add	r2, r2, r3
    2d30:	e020c001 	eor	r12, r0, r1
    2d34:	e1b00480 	lsls	r0, r0, #9
    2d38:	11b01481 	lslsne	r1, r1, #9
    2d3c:	0a000010 	beq	2d84 <__aeabi_fmul+0x70>
    2d40:	e3a03302 	mov	r3, #134217728	; 0x8000000
    2d44:	e18302a0 	orr	r0, r3, r0, lsr #5
    2d48:	e18312a1 	orr	r1, r3, r1, lsr #5
    2d4c:	e0813190 	umull	r3, r1, r0, r1
    2d50:	e20c0102 	and	r0, r12, #-2147483648	; 0x80000000
    2d54:	e3510502 	cmp	r1, #8388608	; 0x800000
    2d58:	31a01081 	lslcc	r1, r1, #1
    2d5c:	31811fa3 	orrcc	r1, r1, r3, lsr #31
    2d60:	31a03083 	lslcc	r3, r3, #1
    2d64:	e1800001 	orr	r0, r0, r1
    2d68:	e2c2207f 	sbc	r2, r2, #127	; 0x7f
    2d6c:	e35200fd 	cmp	r2, #253	; 0xfd
    2d70:	8a00000f 	bhi	2db4 <__aeabi_fmul+0xa0>
    2d74:	e3530102 	cmp	r3, #-2147483648	; 0x80000000
    2d78:	e0a00b82 	adc	r0, r0, r2, lsl #23
    2d7c:	03c00001 	biceq	r0, r0, #1
    2d80:	e12fff1e 	bx	lr
    2d84:	e3300000 	teq	r0, #0
    2d88:	e20cc102 	and	r12, r12, #-2147483648	; 0x80000000
    2d8c:	01a01481 	lsleq	r1, r1, #9
    2d90:	e18c04a0 	orr	r0, r12, r0, lsr #9
    2d94:	e18004a1 	orr	r0, r0, r1, lsr #9
    2d98:	e252207f 	subs	r2, r2, #127	; 0x7f
    2d9c:	c27230ff 	rsbsgt	r3, r2, #255	; 0xff
    2da0:	c1800b82 	orrgt	r0, r0, r2, lsl #23
    2da4:	c12fff1e 	bxgt	lr
    2da8:	e3800502 	orr	r0, r0, #8388608	; 0x800000
    2dac:	e3a03000 	mov	r3, #0
    2db0:	e2522001 	subs	r2, r2, #1
    2db4:	ca000035 	bgt	2e90 <__aeabi_fmul+0x17c>
    2db8:	e3720019 	cmn	r2, #25
    2dbc:	d2000102 	andle	r0, r0, #-2147483648	; 0x80000000
    2dc0:	d12fff1e 	bxle	lr
    2dc4:	e2622000 	rsb	r2, r2, #0
    2dc8:	e1b01080 	lsls	r1, r0, #1
    2dcc:	e1a01231 	lsr	r1, r1, r2
    2dd0:	e2622020 	rsb	r2, r2, #32
    2dd4:	e1a0c210 	lsl	r12, r0, r2
    2dd8:	e1b00061 	rrxs	r0, r1
    2ddc:	e2a00000 	adc	r0, r0, #0
    2de0:	e193308c 	orrs	r3, r3, r12, lsl #1
    2de4:	01c00fac 	biceq	r0, r0, r12, lsr #31
    2de8:	e12fff1e 	bx	lr
    2dec:	e3320000 	teq	r2, #0
    2df0:	e200c102 	and	r12, r0, #-2147483648	; 0x80000000
    2df4:	01a00080 	lsleq	r0, r0, #1
    2df8:	03100502 	tsteq	r0, #8388608	; 0x800000
    2dfc:	02422001 	subeq	r2, r2, #1
    2e00:	0afffffb 	beq	2df4 <__aeabi_fmul+0xe0>
    2e04:	e180000c 	orr	r0, r0, r12
    2e08:	e3330000 	teq	r3, #0
    2e0c:	e201c102 	and	r12, r1, #-2147483648	; 0x80000000
    2e10:	01a01081 	lsleq	r1, r1, #1
    2e14:	03110502 	tsteq	r1, #8388608	; 0x800000
    2e18:	02433001 	subeq	r3, r3, #1
    2e1c:	0afffffb 	beq	2e10 <__aeabi_fmul+0xfc>
    2e20:	e181100c 	orr	r1, r1, r12
    2e24:	eaffffc0 	b	2d2c <__aeabi_fmul+0x18>
    2e28:	e00c3ba1 	and	r3, r12, r1, lsr #23
    2e2c:	e132000c 	teq	r2, r12
    2e30:	1133000c 	teqne	r3, r12
    2e34:	0a000005 	beq	2e50 <__aeabi_fmul+0x13c>
    2e38:	e3d0c102 	bics	r12, r0, #-2147483648	; 0x80000000
    2e3c:	13d1c102 	bicsne	r12, r1, #-2147483648	; 0x80000000
    2e40:	1affffe9 	bne	2dec <__aeabi_fmul+0xd8>
    2e44:	e0200001 	eor	r0, r0, r1
    2e48:	e2000102 	and	r0, r0, #-2147483648	; 0x80000000
    2e4c:	e12fff1e 	bx	lr
    2e50:	e3300000 	teq	r0, #0
    2e54:	13300102 	teqne	r0, #-2147483648	; 0x80000000
    2e58:	01a00001 	moveq	r0, r1
    2e5c:	13310000 	teqne	r1, #0
    2e60:	13310102 	teqne	r1, #-2147483648	; 0x80000000
    2e64:	0a00000d 	beq	2ea0 <__aeabi_fmul+0x18c>
    2e68:	e132000c 	teq	r2, r12
    2e6c:	1a000001 	bne	2e78 <__aeabi_fmul+0x164>
    2e70:	e1b02480 	lsls	r2, r0, #9
    2e74:	1a000009 	bne	2ea0 <__aeabi_fmul+0x18c>
    2e78:	e133000c 	teq	r3, r12
    2e7c:	1a000002 	bne	2e8c <__aeabi_fmul+0x178>
    2e80:	e1b03481 	lsls	r3, r1, #9
    2e84:	11a00001 	movne	r0, r1
    2e88:	1a000004 	bne	2ea0 <__aeabi_fmul+0x18c>
    2e8c:	e0200001 	eor	r0, r0, r1
    2e90:	e2000102 	and	r0, r0, #-2147483648	; 0x80000000
    2e94:	e380047f 	orr	r0, r0, #2130706432	; 0x7f000000
    2e98:	e3800502 	orr	r0, r0, #8388608	; 0x800000
    2e9c:	e12fff1e 	bx	lr
    2ea0:	e380047f 	orr	r0, r0, #2130706432	; 0x7f000000
    2ea4:	e3800503 	orr	r0, r0, #12582912	; 0xc00000
    2ea8:	e12fff1e 	bx	lr

00002eac <__aeabi_fdiv>:
    2eac:	e3a0c0ff 	mov	r12, #255	; 0xff
    2eb0:	e01c2ba0 	ands	r2, r12, r0, lsr #23
    2eb4:	101c3ba1 	andsne	r3, r12, r1, lsr #23
    2eb8:	1132000c 	teqne	r2, r12
    2ebc:	1133000c 	teqne	r3, r12
    2ec0:	0a00003a 	beq	2fb0 <__aeabi_fdiv+0x104>
    2ec4:	e0422003 	sub	r2, r2, r3
    2ec8:	e020c001 	eor	r12, r0, r1
    2ecc:	e1b01481 	lsls	r1, r1, #9
    2ed0:	e1a00480 	lsl	r0, r0, #9
    2ed4:	0a00001c 	beq	2f4c <__aeabi_fdiv+0xa0>
    2ed8:	e3a03201 	mov	r3, #268435456	; 0x10000000
    2edc:	e1831221 	orr	r1, r3, r1, lsr #4
    2ee0:	e1833220 	orr	r3, r3, r0, lsr #4
    2ee4:	e20c0102 	and	r0, r12, #-2147483648	; 0x80000000
    2ee8:	e1530001 	cmp	r3, r1
    2eec:	31a03083 	lslcc	r3, r3, #1
    2ef0:	e2a2207d 	adc	r2, r2, #125	; 0x7d
    2ef4:	e3a0c502 	mov	r12, #8388608	; 0x800000
    2ef8:	e1530001 	cmp	r3, r1
    2efc:	20433001 	subcs	r3, r3, r1
    2f00:	2180000c 	orrcs	r0, r0, r12
    2f04:	e15300a1 	cmp	r3, r1, lsr #1
    2f08:	204330a1 	subcs	r3, r3, r1, lsr #1
    2f0c:	218000ac 	orrcs	r0, r0, r12, lsr #1
    2f10:	e1530121 	cmp	r3, r1, lsr #2
    2f14:	20433121 	subcs	r3, r3, r1, lsr #2
    2f18:	2180012c 	orrcs	r0, r0, r12, lsr #2
    2f1c:	e15301a1 	cmp	r3, r1, lsr #3
    2f20:	204331a1 	subcs	r3, r3, r1, lsr #3
    2f24:	218001ac 	orrcs	r0, r0, r12, lsr #3
    2f28:	e1b03203 	lsls	r3, r3, #4
    2f2c:	11b0c22c 	lsrsne	r12, r12, #4
    2f30:	1afffff0 	bne	2ef8 <__aeabi_fdiv+0x4c>
    2f34:	e35200fd 	cmp	r2, #253	; 0xfd
    2f38:	8affff9d 	bhi	2db4 <__aeabi_fmul+0xa0>
    2f3c:	e1530001 	cmp	r3, r1
    2f40:	e0a00b82 	adc	r0, r0, r2, lsl #23
    2f44:	03c00001 	biceq	r0, r0, #1
    2f48:	e12fff1e 	bx	lr
    2f4c:	e20cc102 	and	r12, r12, #-2147483648	; 0x80000000
    2f50:	e18c04a0 	orr	r0, r12, r0, lsr #9
    2f54:	e292207f 	adds	r2, r2, #127	; 0x7f
    2f58:	c27230ff 	rsbsgt	r3, r2, #255	; 0xff
    2f5c:	c1800b82 	orrgt	r0, r0, r2, lsl #23
    2f60:	c12fff1e 	bxgt	lr
    2f64:	e3800502 	orr	r0, r0, #8388608	; 0x800000
    2f68:	e3a03000 	mov	r3, #0
    2f6c:	e2522001 	subs	r2, r2, #1
    2f70:	eaffff8f 	b	2db4 <__aeabi_fmul+0xa0>
    2f74:	e3320000 	teq	r2, #0
    2f78:	e200c102 	and	r12, r0, #-2147483648	; 0x80000000
    2f7c:	01a00080 	lsleq	r0, r0, #1
    2f80:	03100502 	tsteq	r0, #8388608	; 0x800000
    2f84:	02422001 	subeq	r2, r2, #1
    2f88:	0afffffb 	beq	2f7c <__aeabi_fdiv+0xd0>
    2f8c:	e180000c 	orr	r0, r0, r12
    2f90:	e3330000 	teq	r3, #0
    2f94:	e201c102 	and	r12, r1, #-2147483648	; 0x80000000
    2f98:	01a01081 	lsleq	r1, r1, #1
    2f9c:	03110502 	tsteq	r1, #8388608	; 0x800000
    2fa0:	02433001 	subeq	r3, r3, #1
    2fa4:	0afffffb 	beq	2f98 <__aeabi_fdiv+0xec>
    2fa8:	e181100c 	orr	r1, r1, r12
    2fac:	eaffffc4 	b	2ec4 <__aeabi_fdiv+0x18>
    2fb0:	e00c3ba1 	and	r3, r12, r1, lsr #23
    2fb4:	e132000c 	teq	r2, r12
    2fb8:	1a000005 	bne	2fd4 <__aeabi_fdiv+0x128>
    2fbc:	e1b02480 	lsls	r2, r0, #9
    2fc0:	1affffb6 	bne	2ea0 <__aeabi_fmul+0x18c>
    2fc4:	e133000c 	teq	r3, r12
    2fc8:	1affffaf 	bne	2e8c <__aeabi_fmul+0x178>
    2fcc:	e1a00001 	mov	r0, r1
    2fd0:	eaffffb2 	b	2ea0 <__aeabi_fmul+0x18c>
    2fd4:	e133000c 	teq	r3, r12
    2fd8:	1a000003 	bne	2fec <__aeabi_fdiv+0x140>
    2fdc:	e1b03481 	lsls	r3, r1, #9
    2fe0:	0affff97 	beq	2e44 <__aeabi_fmul+0x130>
    2fe4:	e1a00001 	mov	r0, r1
    2fe8:	eaffffac 	b	2ea0 <__aeabi_fmul+0x18c>
    2fec:	e3d0c102 	bics	r12, r0, #-2147483648	; 0x80000000
    2ff0:	13d1c102 	bicsne	r12, r1, #-2147483648	; 0x80000000
    2ff4:	1affffde 	bne	2f74 <__aeabi_fdiv+0xc8>
    2ff8:	e3d02102 	bics	r2, r0, #-2147483648	; 0x80000000
    2ffc:	1affffa2 	bne	2e8c <__aeabi_fmul+0x178>
    3000:	e3d13102 	bics	r3, r1, #-2147483648	; 0x80000000
    3004:	1affff8e 	bne	2e44 <__aeabi_fmul+0x130>
    3008:	eaffffa4 	b	2ea0 <__aeabi_fmul+0x18c>

0000300c <__gesf2>:
    300c:	e3e0c000 	mvn	r12, #0
    3010:	ea000002 	b	3020 <__cmpsf2+0x4>

00003014 <__lesf2>:
    3014:	e3a0c001 	mov	r12, #1
    3018:	ea000000 	b	3020 <__cmpsf2+0x4>

0000301c <__cmpsf2>:
    301c:	e3a0c001 	mov	r12, #1
    3020:	e52dc004 	push	{r12}		; (str r12, [sp, #-4]!)
    3024:	e1a02080 	lsl	r2, r0, #1
    3028:	e1a03081 	lsl	r3, r1, #1
    302c:	e1f0cc42 	mvns	r12, r2, asr #24
    3030:	11f0cc43 	mvnsne	r12, r3, asr #24
    3034:	0a000007 	beq	3058 <__cmpsf2+0x3c>
    3038:	e28dd004 	add	sp, sp, #4
    303c:	e192c0a3 	orrs	r12, r2, r3, lsr #1
    3040:	11300001 	teqne	r0, r1
    3044:	50520003 	subspl	r0, r2, r3
    3048:	81a00fc1 	asrhi	r0, r1, #31
    304c:	31e00fc1 	mvncc	r0, r1, asr #31
    3050:	13800001 	orrne	r0, r0, #1
    3054:	e12fff1e 	bx	lr
    3058:	e1f0cc42 	mvns	r12, r2, asr #24
    305c:	1a000001 	bne	3068 <__cmpsf2+0x4c>
    3060:	e1b0c480 	lsls	r12, r0, #9
    3064:	1a000003 	bne	3078 <__cmpsf2+0x5c>
    3068:	e1f0cc43 	mvns	r12, r3, asr #24
    306c:	1afffff1 	bne	3038 <__cmpsf2+0x1c>
    3070:	e1b0c481 	lsls	r12, r1, #9
    3074:	0affffef 	beq	3038 <__cmpsf2+0x1c>
    3078:	e49d0004 	pop	{r0}		; (ldr r0, [sp], #4)
    307c:	e12fff1e 	bx	lr

00003080 <__aeabi_cfrcmple>:
    3080:	e1a0c000 	mov	r12, r0
    3084:	e1a00001 	mov	r0, r1
    3088:	e1a0100c 	mov	r1, r12
    308c:	eaffffff 	b	3090 <__aeabi_cfcmpeq>

00003090 <__aeabi_cfcmpeq>:
    3090:	e92d400f 	push	{r0, r1, r2, r3, lr}
    3094:	ebffffe0 	bl	301c <__cmpsf2>
    3098:	e3500000 	cmp	r0, #0
    309c:	43700000 	cmnmi	r0, #0
    30a0:	e8bd400f 	pop	{r0, r1, r2, r3, lr}
    30a4:	e12fff1e 	bx	lr

000030a8 <__aeabi_fcmpeq>:
    30a8:	e52de008 	str	lr, [sp, #-8]!
    30ac:	ebfffff7 	bl	3090 <__aeabi_cfcmpeq>
    30b0:	03a00001 	moveq	r0, #1
    30b4:	13a00000 	movne	r0, #0
    30b8:	e49de008 	ldr	lr, [sp], #8
    30bc:	e12fff1e 	bx	lr

000030c0 <__aeabi_fcmplt>:
    30c0:	e52de008 	str	lr, [sp, #-8]!
    30c4:	ebfffff1 	bl	3090 <__aeabi_cfcmpeq>
    30c8:	33a00001 	movcc	r0, #1
    30cc:	23a00000 	movcs	r0, #0
    30d0:	e49de008 	ldr	lr, [sp], #8
    30d4:	e12fff1e 	bx	lr

000030d8 <__aeabi_fcmple>:
    30d8:	e52de008 	str	lr, [sp, #-8]!
    30dc:	ebffffeb 	bl	3090 <__aeabi_cfcmpeq>
    30e0:	93a00001 	movls	r0, #1
    30e4:	83a00000 	movhi	r0, #0
    30e8:	e49de008 	ldr	lr, [sp], #8
    30ec:	e12fff1e 	bx	lr

000030f0 <__aeabi_fcmpge>:
    30f0:	e52de008 	str	lr, [sp, #-8]!
    30f4:	ebffffe1 	bl	3080 <__aeabi_cfrcmple>
    30f8:	93a00001 	movls	r0, #1
    30fc:	83a00000 	movhi	r0, #0
    3100:	e49de008 	ldr	lr, [sp], #8
    3104:	e12fff1e 	bx	lr

00003108 <__aeabi_fcmpgt>:
    3108:	e52de008 	str	lr, [sp, #-8]!
    310c:	ebffffdb 	bl	3080 <__aeabi_cfrcmple>
    3110:	33a00001 	movcc	r0, #1
    3114:	23a00000 	movcs	r0, #0
    3118:	e49de008 	ldr	lr, [sp], #8
    311c:	e12fff1e 	bx	lr

00003120 <__aeabi_f2iz>:
    3120:	e1a02080 	lsl	r2, r0, #1
    3124:	e352047f 	cmp	r2, #2130706432	; 0x7f000000
    3128:	3a000008 	bcc	3150 <__aeabi_f2iz+0x30>
    312c:	e3a0309e 	mov	r3, #158	; 0x9e
    3130:	e0532c22 	subs	r2, r3, r2, lsr #24
    3134:	9a000007 	bls	3158 <__aeabi_f2iz+0x38>
    3138:	e1a03400 	lsl	r3, r0, #8
    313c:	e3833102 	orr	r3, r3, #-2147483648	; 0x80000000
    3140:	e3100102 	tst	r0, #-2147483648	; 0x80000000
    3144:	e1a00233 	lsr	r0, r3, r2
    3148:	12600000 	rsbne	r0, r0, #0
    314c:	e12fff1e 	bx	lr
    3150:	e3a00000 	mov	r0, #0
    3154:	e12fff1e 	bx	lr
    3158:	e3720061 	cmn	r2, #97	; 0x61
    315c:	1a000001 	bne	3168 <__aeabi_f2iz+0x48>
    3160:	e1b02480 	lsls	r2, r0, #9
    3164:	1a000002 	bne	3174 <__aeabi_f2iz+0x54>
    3168:	e2100102 	ands	r0, r0, #-2147483648	; 0x80000000
    316c:	03e00102 	mvneq	r0, #-2147483648	; 0x80000000
    3170:	e12fff1e 	bx	lr
    3174:	e3a00000 	mov	r0, #0
    3178:	e12fff1e 	bx	lr

0000317c <atexit>:
    317c:	e1a01000 	mov	r1, r0
    3180:	e3a00000 	mov	r0, #0
    3184:	e92d4008 	push	{r3, lr}
    3188:	e1a02000 	mov	r2, r0
    318c:	e1a03000 	mov	r3, r0
    3190:	eb00000e 	bl	31d0 <__register_exitproc>
    3194:	e8bd4008 	pop	{r3, lr}
    3198:	e12fff1e 	bx	lr

0000319c <exit>:
    319c:	e92d4008 	push	{r3, lr}
    31a0:	e3a01000 	mov	r1, #0
    31a4:	e1a04000 	mov	r4, r0
    31a8:	eb000045 	bl	32c4 <__call_exitprocs>
    31ac:	e59f3018 	ldr	r3, [pc, #24]	; 31cc <exit+0x30>
    31b0:	e5930000 	ldr	r0, [r3]
    31b4:	e590303c 	ldr	r3, [r0, #60]	; 0x3c
    31b8:	e3530000 	cmp	r3, #0
    31bc:	11a0e00f 	movne	lr, pc
    31c0:	112fff13 	bxne	r3
    31c4:	e1a00004 	mov	r0, r4
    31c8:	eb0000c9 	bl	34f4 <_exit>
    31cc:	000035bc 	.word	0x000035bc

000031d0 <__register_exitproc>:
    31d0:	e59fc0e4 	ldr	r12, [pc, #228]	; 32bc <__register_exitproc+0xec>
    31d4:	e92d41f0 	push	{r4, r5, r6, r7, r8, lr}
    31d8:	e59c4000 	ldr	r4, [r12]
    31dc:	e594c148 	ldr	r12, [r4, #328]	; 0x148
    31e0:	e35c0000 	cmp	r12, #0
    31e4:	0284cf53 	addeq	r12, r4, #332	; 0x14c
    31e8:	e59c5004 	ldr	r5, [r12, #4]
    31ec:	0584c148 	streq	r12, [r4, #328]	; 0x148
    31f0:	e355001f 	cmp	r5, #31
    31f4:	e24dd010 	sub	sp, sp, #16
    31f8:	e1a06000 	mov	r6, r0
    31fc:	da000015 	ble	3258 <__register_exitproc+0x88>
    3200:	e59f00b8 	ldr	r0, [pc, #184]	; 32c0 <__register_exitproc+0xf0>
    3204:	e3500000 	cmp	r0, #0
    3208:	1a000001 	bne	3214 <__register_exitproc+0x44>
    320c:	e3e00000 	mvn	r0, #0
    3210:	ea000018 	b	3278 <__register_exitproc+0xa8>
    3214:	e3a00e19 	mov	r0, #400	; 0x190
    3218:	e58d100c 	str	r1, [sp, #12]
    321c:	e58d2008 	str	r2, [sp, #8]
    3220:	e58d3004 	str	r3, [sp, #4]
    3224:	e320f000 	nop	{0}
    3228:	e250c000 	subs	r12, r0, #0
    322c:	e59d100c 	ldr	r1, [sp, #12]
    3230:	e59d2008 	ldr	r2, [sp, #8]
    3234:	e59d3004 	ldr	r3, [sp, #4]
    3238:	0afffff3 	beq	320c <__register_exitproc+0x3c>
    323c:	e5945148 	ldr	r5, [r4, #328]	; 0x148
    3240:	e3a00000 	mov	r0, #0
    3244:	e58c0004 	str	r0, [r12, #4]
    3248:	e58c5000 	str	r5, [r12]
    324c:	e584c148 	str	r12, [r4, #328]	; 0x148
    3250:	e58c0188 	str	r0, [r12, #392]	; 0x188
    3254:	e58c018c 	str	r0, [r12, #396]	; 0x18c
    3258:	e3560000 	cmp	r6, #0
    325c:	e59c4004 	ldr	r4, [r12, #4]
    3260:	1a000007 	bne	3284 <__register_exitproc+0xb4>
    3264:	e2843002 	add	r3, r4, #2
    3268:	e2844001 	add	r4, r4, #1
    326c:	e78c1103 	str	r1, [r12, r3, lsl #2]
    3270:	e58c4004 	str	r4, [r12, #4]
    3274:	e3a00000 	mov	r0, #0
    3278:	e28dd010 	add	sp, sp, #16
    327c:	e8bd41f0 	pop	{r4, r5, r6, r7, r8, lr}
    3280:	e12fff1e 	bx	lr
    3284:	e3a00001 	mov	r0, #1
    3288:	e1a00410 	lsl	r0, r0, r4
    328c:	e08c8104 	add	r8, r12, r4, lsl #2
    3290:	e3560002 	cmp	r6, #2
    3294:	e59c7188 	ldr	r7, [r12, #392]	; 0x188
    3298:	e5883108 	str	r3, [r8, #264]	; 0x108
    329c:	059c318c 	ldreq	r3, [r12, #396]	; 0x18c
    32a0:	e1877000 	orr	r7, r7, r0
    32a4:	01830000 	orreq	r0, r3, r0
    32a8:	e1a05008 	mov	r5, r8
    32ac:	e5882088 	str	r2, [r8, #136]	; 0x88
    32b0:	e58c7188 	str	r7, [r12, #392]	; 0x188
    32b4:	058c018c 	streq	r0, [r12, #396]	; 0x18c
    32b8:	eaffffe9 	b	3264 <__register_exitproc+0x94>
    32bc:	000035bc 	.word	0x000035bc
    32c0:	00000000 	.word	0x00000000

000032c4 <__call_exitprocs>:
    32c4:	e92d4ff0 	push	{r4, r5, r6, r7, r8, r9, r10, r11, lr}
    32c8:	e59f3168 	ldr	r3, [pc, #360]	; 3438 <__call_exitprocs+0x174>
    32cc:	e5933000 	ldr	r3, [r3]
    32d0:	e24dd014 	sub	sp, sp, #20
    32d4:	e58d3004 	str	r3, [sp, #4]
    32d8:	e2833f52 	add	r3, r3, #328	; 0x148
    32dc:	e58d0008 	str	r0, [sp, #8]
    32e0:	e58d300c 	str	r3, [sp, #12]
    32e4:	e1a07001 	mov	r7, r1
    32e8:	e3a08001 	mov	r8, #1
    32ec:	e59d3004 	ldr	r3, [sp, #4]
    32f0:	e5936148 	ldr	r6, [r3, #328]	; 0x148
    32f4:	e3560000 	cmp	r6, #0
    32f8:	e59db00c 	ldr	r11, [sp, #12]
    32fc:	0a000033 	beq	33d0 <__call_exitprocs+0x10c>
    3300:	e5965004 	ldr	r5, [r6, #4]
    3304:	e2554001 	subs	r4, r5, #1
    3308:	5286a088 	addpl	r10, r6, #136	; 0x88
    330c:	5285501f 	addpl	r5, r5, #31
    3310:	508a5105 	addpl	r5, r10, r5, lsl #2
    3314:	5a000007 	bpl	3338 <__call_exitprocs+0x74>
    3318:	ea000029 	b	33c4 <__call_exitprocs+0x100>
    331c:	e5953000 	ldr	r3, [r5]
    3320:	e1530007 	cmp	r3, r7
    3324:	0a000005 	beq	3340 <__call_exitprocs+0x7c>
    3328:	e2444001 	sub	r4, r4, #1
    332c:	e3740001 	cmn	r4, #1
    3330:	e2455004 	sub	r5, r5, #4
    3334:	0a000022 	beq	33c4 <__call_exitprocs+0x100>
    3338:	e3570000 	cmp	r7, #0
    333c:	1afffff6 	bne	331c <__call_exitprocs+0x58>
    3340:	e5963004 	ldr	r3, [r6, #4]
    3344:	e06a2005 	rsb	r2, r10, r5
    3348:	e2433001 	sub	r3, r3, #1
    334c:	e0862002 	add	r2, r6, r2
    3350:	e1530004 	cmp	r3, r4
    3354:	e5123078 	ldr	r3, [r2, #-120]	; 0xffffff88
    3358:	13a01000 	movne	r1, #0
    335c:	05864004 	streq	r4, [r6, #4]
    3360:	15021078 	strne	r1, [r2, #-120]	; 0xffffff88
    3364:	e3530000 	cmp	r3, #0
    3368:	0affffee 	beq	3328 <__call_exitprocs+0x64>
    336c:	e1a02418 	lsl	r2, r8, r4
    3370:	e5961188 	ldr	r1, [r6, #392]	; 0x188
    3374:	e1120001 	tst	r2, r1
    3378:	e5969004 	ldr	r9, [r6, #4]
    337c:	0a000016 	beq	33dc <__call_exitprocs+0x118>
    3380:	e596118c 	ldr	r1, [r6, #396]	; 0x18c
    3384:	e1120001 	tst	r2, r1
    3388:	1a000016 	bne	33e8 <__call_exitprocs+0x124>
    338c:	e59d0008 	ldr	r0, [sp, #8]
    3390:	e5151080 	ldr	r1, [r5, #-128]	; 0xffffff80
    3394:	e1a0e00f 	mov	lr, pc
    3398:	e12fff13 	bx	r3
    339c:	e5963004 	ldr	r3, [r6, #4]
    33a0:	e1530009 	cmp	r3, r9
    33a4:	1affffd0 	bne	32ec <__call_exitprocs+0x28>
    33a8:	e59b3000 	ldr	r3, [r11]
    33ac:	e1530006 	cmp	r3, r6
    33b0:	1affffcd 	bne	32ec <__call_exitprocs+0x28>
    33b4:	e2444001 	sub	r4, r4, #1
    33b8:	e3740001 	cmn	r4, #1
    33bc:	e2455004 	sub	r5, r5, #4
    33c0:	1affffdc 	bne	3338 <__call_exitprocs+0x74>
    33c4:	e59f1070 	ldr	r1, [pc, #112]	; 343c <__call_exitprocs+0x178>
    33c8:	e3510000 	cmp	r1, #0
    33cc:	1a000009 	bne	33f8 <__call_exitprocs+0x134>
    33d0:	e28dd014 	add	sp, sp, #20
    33d4:	e8bd4ff0 	pop	{r4, r5, r6, r7, r8, r9, r10, r11, lr}
    33d8:	e12fff1e 	bx	lr
    33dc:	e1a0e00f 	mov	lr, pc
    33e0:	e12fff13 	bx	r3
    33e4:	eaffffec 	b	339c <__call_exitprocs+0xd8>
    33e8:	e5150080 	ldr	r0, [r5, #-128]	; 0xffffff80
    33ec:	e1a0e00f 	mov	lr, pc
    33f0:	e12fff13 	bx	r3
    33f4:	eaffffe8 	b	339c <__call_exitprocs+0xd8>
    33f8:	e5963004 	ldr	r3, [r6, #4]
    33fc:	e3530000 	cmp	r3, #0
    3400:	e5963000 	ldr	r3, [r6]
    3404:	1a000008 	bne	342c <__call_exitprocs+0x168>
    3408:	e3530000 	cmp	r3, #0
    340c:	0a000006 	beq	342c <__call_exitprocs+0x168>
    3410:	e1a00006 	mov	r0, r6
    3414:	e58b3000 	str	r3, [r11]
    3418:	e320f000 	nop	{0}
    341c:	e59b6000 	ldr	r6, [r11]
    3420:	e3560000 	cmp	r6, #0
    3424:	1affffb5 	bne	3300 <__call_exitprocs+0x3c>
    3428:	eaffffe8 	b	33d0 <__call_exitprocs+0x10c>
    342c:	e1a0b006 	mov	r11, r6
    3430:	e1a06003 	mov	r6, r3
    3434:	eafffff9 	b	3420 <__call_exitprocs+0x15c>
    3438:	000035bc 	.word	0x000035bc
    343c:	00000000 	.word	0x00000000

00003440 <register_fini>:
    3440:	e92d4008 	push	{r3, lr}
    3444:	e59f3010 	ldr	r3, [pc, #16]	; 345c <register_fini+0x1c>
    3448:	e3530000 	cmp	r3, #0
    344c:	159f000c 	ldrne	r0, [pc, #12]	; 3460 <register_fini+0x20>
    3450:	1bffff49 	blne	317c <atexit>
    3454:	e8bd4008 	pop	{r3, lr}
    3458:	e12fff1e 	bx	lr
    345c:	000035e4 	.word	0x000035e4
    3460:	00003464 	.word	0x00003464

00003464 <__libc_fini_array>:
    3464:	e92d4038 	push	{r3, r4, r5, lr}
    3468:	e59f5030 	ldr	r5, [pc, #48]	; 34a0 <__libc_fini_array+0x3c>
    346c:	e59f4030 	ldr	r4, [pc, #48]	; 34a4 <__libc_fini_array+0x40>
    3470:	e0654004 	rsb	r4, r5, r4
    3474:	e1b04144 	asrs	r4, r4, #2
    3478:	10855104 	addne	r5, r5, r4, lsl #2
    347c:	0a000004 	beq	3494 <__libc_fini_array+0x30>
    3480:	e5353004 	ldr	r3, [r5, #-4]!
    3484:	e1a0e00f 	mov	lr, pc
    3488:	e12fff13 	bx	r3
    348c:	e2544001 	subs	r4, r4, #1
    3490:	1afffffa 	bne	3480 <__libc_fini_array+0x1c>
    3494:	eb000052 	bl	35e4 <__libc_fini>
    3498:	e8bd4038 	pop	{r3, r4, r5, lr}
    349c:	e12fff1e 	bx	lr
    34a0:	000035fc 	.word	0x000035fc
    34a4:	00003600 	.word	0x00003600

000034a8 <__cs3_premain>:
    34a8:	e92d4008 	push	{r3, lr}
    34ac:	eb000017 	bl	3510 <__libc_init_array>
    34b0:	e59f3030 	ldr	r3, [pc, #48]	; 34e8 <__cs3_premain+0x40>
    34b4:	e3530000 	cmp	r3, #0
    34b8:	15930000 	ldrne	r0, [r3]
    34bc:	01a00003 	moveq	r0, r3
    34c0:	e59f3024 	ldr	r3, [pc, #36]	; 34ec <__cs3_premain+0x44>
    34c4:	e3530000 	cmp	r3, #0
    34c8:	15931000 	ldrne	r1, [r3]
    34cc:	01a01003 	moveq	r1, r3
    34d0:	e3a02000 	mov	r2, #0
    34d4:	ebfff6b2 	bl	fa4 <main>
    34d8:	e59f3010 	ldr	r3, [pc, #16]	; 34f0 <__cs3_premain+0x48>
    34dc:	e3530000 	cmp	r3, #0
    34e0:	1bffff2d 	blne	319c <exit>
    34e4:	eafffffe 	b	34e4 <__cs3_premain+0x3c>
	...
    34f0:	0000319c 	.word	0x0000319c

000034f4 <_exit>:
    34f4:	e52de004 	push	{lr}		; (str lr, [sp, #-4]!)
    34f8:	e3a00018 	mov	r0, #24
    34fc:	e59f1004 	ldr	r1, [pc, #4]	; 3508 <_exit+0x14>
    3500:	ef123456 	svc	0x00123456
    3504:	eafffffe 	b	3504 <_exit+0x10>
    3508:	00020026 	.word	0x00020026

0000350c <__cs3_isr_interrupt>:
    350c:	eafffffe 	b	350c <__cs3_isr_interrupt>

00003510 <__libc_init_array>:
    3510:	e92d4070 	push	{r4, r5, r6, lr}
    3514:	e59f506c 	ldr	r5, [pc, #108]	; 3588 <__libc_init_array+0x78>
    3518:	e59f606c 	ldr	r6, [pc, #108]	; 358c <__libc_init_array+0x7c>
    351c:	e0656006 	rsb	r6, r5, r6
    3520:	e1b06146 	asrs	r6, r6, #2
    3524:	12455004 	subne	r5, r5, #4
    3528:	13a04000 	movne	r4, #0
    352c:	0a000005 	beq	3548 <__libc_init_array+0x38>
    3530:	e5b53004 	ldr	r3, [r5, #4]!
    3534:	e2844001 	add	r4, r4, #1
    3538:	e1a0e00f 	mov	lr, pc
    353c:	e12fff13 	bx	r3
    3540:	e1560004 	cmp	r6, r4
    3544:	1afffff9 	bne	3530 <__libc_init_array+0x20>
    3548:	e59f5040 	ldr	r5, [pc, #64]	; 3590 <__libc_init_array+0x80>
    354c:	e59f6040 	ldr	r6, [pc, #64]	; 3594 <__libc_init_array+0x84>
    3550:	e0656006 	rsb	r6, r5, r6
    3554:	eb00001a 	bl	35c4 <_init>
    3558:	e1b06146 	asrs	r6, r6, #2
    355c:	12455004 	subne	r5, r5, #4
    3560:	13a04000 	movne	r4, #0
    3564:	0a000005 	beq	3580 <__libc_init_array+0x70>
    3568:	e5b53004 	ldr	r3, [r5, #4]!
    356c:	e2844001 	add	r4, r4, #1
    3570:	e1a0e00f 	mov	lr, pc
    3574:	e12fff13 	bx	r3
    3578:	e1560004 	cmp	r6, r4
    357c:	1afffff9 	bne	3568 <__libc_init_array+0x58>
    3580:	e8bd4070 	pop	{r4, r5, r6, lr}
    3584:	e12fff1e 	bx	lr
    3588:	000035dc 	.word	0x000035dc
    358c:	000035dc 	.word	0x000035dc
    3590:	000035dc 	.word	0x000035dc
    3594:	000035e4 	.word	0x000035e4

Disassembly of section .rodata:

0000359c <_global_impure_ptr-0x20>:
    359c:	4302d021 	.word	0x4302d021
    35a0:	4312d4fe 	.word	0x4312d4fe
    35a4:	4324d062 	.word	0x4324d062
    35a8:	432e9d2f 	.word	0x432e9d2f
    35ac:	4343ff7d 	.word	0x4343ff7d
    35b0:	435c0000 	.word	0x435c0000
    35b4:	4376f127 	.word	0x4376f127
    35b8:	4382d021 	.word	0x4382d021

000035bc <_global_impure_ptr>:
    35bc:	00032430 00000043                       0$..C...

000035c4 <_init>:
    35c4:	e1a0c00d 	mov	r12, sp
    35c8:	e92ddff8 	push	{r3, r4, r5, r6, r7, r8, r9, r10, r11, r12, lr, pc}
    35cc:	e24cb004 	sub	r11, r12, #4
    35d0:	e24bd028 	sub	sp, r11, #40	; 0x28
    35d4:	e89d6ff0 	ldm	sp, {r4, r5, r6, r7, r8, r9, r10, r11, sp, lr}
    35d8:	e12fff1e 	bx	lr

000035dc <__init_array_start>:
    35dc:	00003440 	.word	0x00003440

000035e0 <__frame_dummy_init_array_entry>:
    35e0:	00000208                                ....

000035e4 <__libc_fini>:
    35e4:	e1a0c00d 	mov	r12, sp
    35e8:	e92ddff8 	push	{r3, r4, r5, r6, r7, r8, r9, r10, r11, r12, lr, pc}
    35ec:	e24cb004 	sub	r11, r12, #4
    35f0:	e24bd028 	sub	sp, r11, #40	; 0x28
    35f4:	e89d6ff0 	ldm	sp, {r4, r5, r6, r7, r8, r9, r10, r11, sp, lr}
    35f8:	e12fff1e 	bx	lr

000035fc <__fini_array_start>:
    35fc:	000001c4 	.word	0x000001c4

00003600 <__cs3_regions>:
	...
    360c:	00032860 	.word	0x00032860
    3610:	00000020 	.word	0x00000020

00003614 <__cs3_regions_end>:
    3614:	00000000 	.word	0x00000000
